# SymbolsHelper-Confirmed: 5.9.0~rc amd64
libQt5Charts.so.5 libqt5charts5 #MINVER#
 Qt_5.0@Qt_5.0 5.7.1
 Qt_5.1@Qt_5.1 5.7.1
 Qt_5.2@Qt_5.2 5.7.1
 Qt_5.3@Qt_5.3 5.7.1
 Qt_5.4@Qt_5.4 5.7.1
 Qt_5.5@Qt_5.5 5.7.1
 Qt_5.6@Qt_5.6 5.7.1
 Qt_5.7@Qt_5.7 5.7.1
 Qt_5.8@Qt_5.8 5.9.0~rc
 Qt_5.9@Qt_5.9 5.9.0~rc
 Qt_5@Qt_5 5.7.1
 Qt_5_PRIVATE_API@Qt_5_PRIVATE_API 5.7.1
 _ZN8QtCharts10QBarSeries11qt_metacallEN11QMetaObject4CallEiPPv@Qt_5 5.7.1
 _ZN8QtCharts10QBarSeries11qt_metacastEPKc@Qt_5 5.7.1
 _ZN8QtCharts10QBarSeries16staticMetaObjectE@Qt_5 5.7.1
 _ZN8QtCharts10QBarSeriesC1EP7QObject@Qt_5 5.7.1
 _ZN8QtCharts10QBarSeriesC2EP7QObject@Qt_5 5.7.1
 _ZN8QtCharts10QBarSeriesD0Ev@Qt_5 5.7.1
 _ZN8QtCharts10QBarSeriesD1Ev@Qt_5 5.7.1
 _ZN8QtCharts10QBarSeriesD2Ev@Qt_5 5.7.1
 _ZN8QtCharts10QChartView11qt_metacallEN11QMetaObject4CallEiPPv@Qt_5 5.7.1
 _ZN8QtCharts10QChartView11qt_metacastEPKc@Qt_5 5.7.1
 _ZN8QtCharts10QChartView11resizeEventEP12QResizeEvent@Qt_5 5.7.1
 _ZN8QtCharts10QChartView13setRubberBandERK6QFlagsINS0_10RubberBandEE@Qt_5 5.7.1
 _ZN8QtCharts10QChartView14mouseMoveEventEP11QMouseEvent@Qt_5 5.7.1
 _ZN8QtCharts10QChartView15mousePressEventEP11QMouseEvent@Qt_5 5.7.1
 _ZN8QtCharts10QChartView16staticMetaObjectE@Qt_5 5.7.1
 _ZN8QtCharts10QChartView17mouseReleaseEventEP11QMouseEvent@Qt_5 5.7.1
 _ZN8QtCharts10QChartView8setChartEPNS_6QChartE@Qt_5 5.7.1
 _ZN8QtCharts10QChartViewC1EP7QWidget@Qt_5 5.7.1
 _ZN8QtCharts10QChartViewC1EPNS_6QChartEP7QWidget@Qt_5 5.7.1
 _ZN8QtCharts10QChartViewC2EP7QWidget@Qt_5 5.7.1
 _ZN8QtCharts10QChartViewC2EPNS_6QChartEP7QWidget@Qt_5 5.7.1
 _ZN8QtCharts10QChartViewD0Ev@Qt_5 5.7.1
 _ZN8QtCharts10QChartViewD1Ev@Qt_5 5.7.1
 _ZN8QtCharts10QChartViewD2Ev@Qt_5 5.7.1
 _ZN8QtCharts10QPieSeries10setPieSizeEd@Qt_5 5.7.1
 _ZN8QtCharts10QPieSeries10sumChangedEv@Qt_5 5.7.1
 _ZN8QtCharts10QPieSeries11qt_metacallEN11QMetaObject4CallEiPPv@Qt_5 5.7.1
 _ZN8QtCharts10QPieSeries11qt_metacastEPKc@Qt_5 5.7.1
 _ZN8QtCharts10QPieSeries11setHoleSizeEd@Qt_5 5.7.1
 _ZN8QtCharts10QPieSeries12countChangedEv@Qt_5 5.7.1
 _ZN8QtCharts10QPieSeries13doubleClickedEPNS_9QPieSliceE@Qt_5 5.7.1
 _ZN8QtCharts10QPieSeries14setPieEndAngleEd@Qt_5 5.7.1
 _ZN8QtCharts10QPieSeries16setLabelsVisibleEb@Qt_5 5.7.1
 _ZN8QtCharts10QPieSeries16setPieStartAngleEd@Qt_5 5.7.1
 _ZN8QtCharts10QPieSeries16staticMetaObjectE@Qt_5 5.7.1
 _ZN8QtCharts10QPieSeries17setLabelsPositionENS_9QPieSlice13LabelPositionE@Qt_5 5.7.1
 _ZN8QtCharts10QPieSeries19setVerticalPositionEd@Qt_5 5.7.1
 _ZN8QtCharts10QPieSeries21setHorizontalPositionEd@Qt_5 5.7.1
 _ZN8QtCharts10QPieSeries4takeEPNS_9QPieSliceE@Qt_5 5.7.1
 _ZN8QtCharts10QPieSeries5addedE5QListIPNS_9QPieSliceEE@Qt_5 5.7.1
 _ZN8QtCharts10QPieSeries5clearEv@Qt_5 5.7.1
 _ZN8QtCharts10QPieSeries6appendE5QListIPNS_9QPieSliceEE@Qt_5 5.7.1
 _ZN8QtCharts10QPieSeries6appendE7QStringd@Qt_5 5.7.1
 _ZN8QtCharts10QPieSeries6appendEPNS_9QPieSliceE@Qt_5 5.7.1
 _ZN8QtCharts10QPieSeries6insertEiPNS_9QPieSliceE@Qt_5 5.7.1
 _ZN8QtCharts10QPieSeries6removeEPNS_9QPieSliceE@Qt_5 5.7.1
 _ZN8QtCharts10QPieSeries7clickedEPNS_9QPieSliceE@Qt_5 5.7.1
 _ZN8QtCharts10QPieSeries7hoveredEPNS_9QPieSliceEb@Qt_5 5.7.1
 _ZN8QtCharts10QPieSeries7pressedEPNS_9QPieSliceE@Qt_5 5.7.1
 _ZN8QtCharts10QPieSeries7removedE5QListIPNS_9QPieSliceEE@Qt_5 5.7.1
 _ZN8QtCharts10QPieSeries8releasedEPNS_9QPieSliceE@Qt_5 5.7.1
 _ZN8QtCharts10QPieSeriesC1EP7QObject@Qt_5 5.7.1
 _ZN8QtCharts10QPieSeriesC2EP7QObject@Qt_5 5.7.1
 _ZN8QtCharts10QPieSeriesD0Ev@Qt_5 5.7.1
 _ZN8QtCharts10QPieSeriesD1Ev@Qt_5 5.7.1
 _ZN8QtCharts10QPieSeriesD2Ev@Qt_5 5.7.1
 _ZN8QtCharts10QPieSerieslsEPNS_9QPieSliceE@Qt_5 5.7.1
 _ZN8QtCharts10QValueAxis10maxChangedEd@Qt_5 5.7.1
 _ZN8QtCharts10QValueAxis10minChangedEd@Qt_5 5.7.1
 _ZN8QtCharts10QValueAxis11qt_metacallEN11QMetaObject4CallEiPPv@Qt_5 5.7.1
 _ZN8QtCharts10QValueAxis11qt_metacastEPKc@Qt_5 5.7.1
 _ZN8QtCharts10QValueAxis12rangeChangedEdd@Qt_5 5.7.1
 _ZN8QtCharts10QValueAxis12setTickCountEi@Qt_5 5.7.1
 _ZN8QtCharts10QValueAxis14setLabelFormatERK7QString@Qt_5 5.7.1
 _ZN8QtCharts10QValueAxis16applyNiceNumbersEv@Qt_5 5.7.1
 _ZN8QtCharts10QValueAxis16staticMetaObjectE@Qt_5 5.7.1
 _ZN8QtCharts10QValueAxis16tickCountChangedEi@Qt_5 5.7.1
 _ZN8QtCharts10QValueAxis17setMinorTickCountEi@Qt_5 5.7.1
 _ZN8QtCharts10QValueAxis18labelFormatChangedERK7QString@Qt_5 5.7.1
 _ZN8QtCharts10QValueAxis21minorTickCountChangedEi@Qt_5 5.7.1
 _ZN8QtCharts10QValueAxis6setMaxEd@Qt_5 5.7.1
 _ZN8QtCharts10QValueAxis6setMinEd@Qt_5 5.7.1
 _ZN8QtCharts10QValueAxis8setRangeEdd@Qt_5 5.7.1
 _ZN8QtCharts10QValueAxisC1EP7QObject@Qt_5 5.7.1
 _ZN8QtCharts10QValueAxisC1ERNS_17QValueAxisPrivateEP7QObject@Qt_5 5.7.1
 _ZN8QtCharts10QValueAxisC2EP7QObject@Qt_5 5.7.1
 _ZN8QtCharts10QValueAxisC2ERNS_17QValueAxisPrivateEP7QObject@Qt_5 5.7.1
 _ZN8QtCharts10QValueAxisD0Ev@Qt_5 5.7.1
 _ZN8QtCharts10QValueAxisD1Ev@Qt_5 5.7.1
 _ZN8QtCharts10QValueAxisD2Ev@Qt_5 5.7.1
 _ZN8QtCharts11QAreaSeries11qt_metacallEN11QMetaObject4CallEiPPv@Qt_5 5.7.1
 _ZN8QtCharts11QAreaSeries11qt_metacastEPKc@Qt_5 5.7.1
 _ZN8QtCharts11QAreaSeries12colorChangedE6QColor@Qt_5 5.7.1
 _ZN8QtCharts11QAreaSeries13doubleClickedERK7QPointF@Qt_5 5.7.1
 _ZN8QtCharts11QAreaSeries14setBorderColorERK6QColor@Qt_5 5.7.1
 _ZN8QtCharts11QAreaSeries14setLowerSeriesEPNS_11QLineSeriesE@Qt_5 5.7.1
 _ZN8QtCharts11QAreaSeries14setUpperSeriesEPNS_11QLineSeriesE@Qt_5 5.7.1
 _ZN8QtCharts11QAreaSeries16setPointsVisibleEb@Qt_5 5.7.1
 _ZN8QtCharts11QAreaSeries16staticMetaObjectE@Qt_5 5.7.1
 _ZN8QtCharts11QAreaSeries18borderColorChangedE6QColor@Qt_5 5.7.1
 _ZN8QtCharts11QAreaSeries18setPointLabelsFontERK5QFont@Qt_5 5.7.1
 _ZN8QtCharts11QAreaSeries19setPointLabelsColorERK6QColor@Qt_5 5.7.1
 _ZN8QtCharts11QAreaSeries20setPointLabelsFormatERK7QString@Qt_5 5.7.1
 _ZN8QtCharts11QAreaSeries21setPointLabelsVisibleEb@Qt_5 5.7.1
 _ZN8QtCharts11QAreaSeries22pointLabelsFontChangedERK5QFont@Qt_5 5.7.1
 _ZN8QtCharts11QAreaSeries22setPointLabelsClippingEb@Qt_5 5.7.1
 _ZN8QtCharts11QAreaSeries23pointLabelsColorChangedERK6QColor@Qt_5 5.7.1
 _ZN8QtCharts11QAreaSeries24pointLabelsFormatChangedERK7QString@Qt_5 5.7.1
 _ZN8QtCharts11QAreaSeries26pointLabelsClippingChangedEb@Qt_5 5.7.1
 _ZN8QtCharts11QAreaSeries28pointLabelsVisibilityChangedEb@Qt_5 5.7.1
 _ZN8QtCharts11QAreaSeries6setPenERK4QPen@Qt_5 5.7.1
 _ZN8QtCharts11QAreaSeries7clickedERK7QPointF@Qt_5 5.7.1
 _ZN8QtCharts11QAreaSeries7hoveredERK7QPointFb@Qt_5 5.7.1
 _ZN8QtCharts11QAreaSeries7pressedERK7QPointF@Qt_5 5.7.1
 _ZN8QtCharts11QAreaSeries8releasedERK7QPointF@Qt_5 5.7.1
 _ZN8QtCharts11QAreaSeries8selectedEv@Qt_5 5.7.1
 _ZN8QtCharts11QAreaSeries8setBrushERK6QBrush@Qt_5 5.7.1
 _ZN8QtCharts11QAreaSeries8setColorERK6QColor@Qt_5 5.7.1
 _ZN8QtCharts11QAreaSeriesC1EP7QObject@Qt_5 5.7.1
 _ZN8QtCharts11QAreaSeriesC1EPNS_11QLineSeriesES2_@Qt_5 5.7.1
 _ZN8QtCharts11QAreaSeriesC2EP7QObject@Qt_5 5.7.1
 _ZN8QtCharts11QAreaSeriesC2EPNS_11QLineSeriesES2_@Qt_5 5.7.1
 _ZN8QtCharts11QAreaSeriesD0Ev@Qt_5 5.7.1
 _ZN8QtCharts11QAreaSeriesD1Ev@Qt_5 5.7.1
 _ZN8QtCharts11QAreaSeriesD2Ev@Qt_5 5.7.1
 _ZN8QtCharts11QLineSeries11qt_metacallEN11QMetaObject4CallEiPPv@Qt_5 5.7.1
 _ZN8QtCharts11QLineSeries11qt_metacastEPKc@Qt_5 5.7.1
 _ZN8QtCharts11QLineSeries16staticMetaObjectE@Qt_5 5.7.1
 _ZN8QtCharts11QLineSeriesC1EP7QObject@Qt_5 5.7.1
 _ZN8QtCharts11QLineSeriesC1ERNS_18QLineSeriesPrivateEP7QObject@Qt_5 5.7.1
 _ZN8QtCharts11QLineSeriesC2EP7QObject@Qt_5 5.7.1
 _ZN8QtCharts11QLineSeriesC2ERNS_18QLineSeriesPrivateEP7QObject@Qt_5 5.7.1
 _ZN8QtCharts11QLineSeriesD0Ev@Qt_5 5.7.1
 _ZN8QtCharts11QLineSeriesD1Ev@Qt_5 5.7.1
 _ZN8QtCharts11QLineSeriesD2Ev@Qt_5 5.7.1
 _ZN8QtCharts11QPolarChart11qt_metacallEN11QMetaObject4CallEiPPv@Qt_5 5.7.1
 _ZN8QtCharts11QPolarChart11qt_metacastEPKc@Qt_5 5.7.1
 _ZN8QtCharts11QPolarChart16staticMetaObjectE@Qt_5 5.7.1
 _ZN8QtCharts11QPolarChart20axisPolarOrientationEPNS_13QAbstractAxisE@Qt_5 5.7.1
 _ZN8QtCharts11QPolarChart7addAxisEPNS_13QAbstractAxisENS0_16PolarOrientationE@Qt_5 5.7.1
 _ZN8QtCharts11QPolarChartC1EP13QGraphicsItem6QFlagsIN2Qt10WindowTypeEE@Qt_5 5.7.1
 _ZN8QtCharts11QPolarChartC2EP13QGraphicsItem6QFlagsIN2Qt10WindowTypeEE@Qt_5 5.7.1
 _ZN8QtCharts11QPolarChartD0Ev@Qt_5 5.7.1
 _ZN8QtCharts11QPolarChartD1Ev@Qt_5 5.7.1
 _ZN8QtCharts11QPolarChartD2Ev@Qt_5 5.7.1
 _ZN8QtCharts13QAbstractAxis10setLinePenERK4QPen@Qt_5 5.7.1
 _ZN8QtCharts13QAbstractAxis10setReverseEb@Qt_5 5.7.1
 _ZN8QtCharts13QAbstractAxis10setVisibleEb@Qt_5 5.7.1
 _ZN8QtCharts13QAbstractAxis11qt_metacallEN11QMetaObject4CallEiPPv@Qt_5 5.7.1
 _ZN8QtCharts13QAbstractAxis11qt_metacastEPKc@Qt_5 5.7.1
 _ZN8QtCharts13QAbstractAxis12colorChangedE6QColor@Qt_5 5.7.1
 _ZN8QtCharts13QAbstractAxis12setShadesPenERK4QPen@Qt_5 5.7.1
 _ZN8QtCharts13QAbstractAxis12setTitleFontERK5QFont@Qt_5 5.7.1
 _ZN8QtCharts13QAbstractAxis12setTitleTextERK7QString@Qt_5 5.7.1
 _ZN8QtCharts13QAbstractAxis13gridLineColorEv@Qt_5 5.7.1
 _ZN8QtCharts13QAbstractAxis13setLabelsFontERK5QFont@Qt_5 5.7.1
 _ZN8QtCharts13QAbstractAxis13setTitleBrushERK6QBrush@Qt_5 5.7.1
 _ZN8QtCharts13QAbstractAxis14linePenChangedERK4QPen@Qt_5 5.7.1
 _ZN8QtCharts13QAbstractAxis14reverseChangedEb@Qt_5 5.7.1
 _ZN8QtCharts13QAbstractAxis14setGridLinePenERK4QPen@Qt_5 5.7.1
 _ZN8QtCharts13QAbstractAxis14setLabelsAngleEi@Qt_5 5.7.1
 _ZN8QtCharts13QAbstractAxis14setLabelsBrushERK6QBrush@Qt_5 5.7.1
 _ZN8QtCharts13QAbstractAxis14setLabelsColorE6QColor@Qt_5 5.7.1
 _ZN8QtCharts13QAbstractAxis14setLineVisibleEb@Qt_5 5.7.1
 _ZN8QtCharts13QAbstractAxis14setShadesBrushERK6QBrush@Qt_5 5.7.1
 _ZN8QtCharts13QAbstractAxis14setShadesColorE6QColor@Qt_5 5.7.1
 _ZN8QtCharts13QAbstractAxis14visibleChangedEb@Qt_5 5.7.1
 _ZN8QtCharts13QAbstractAxis15setLinePenColorE6QColor@Qt_5 5.7.1
 _ZN8QtCharts13QAbstractAxis15setTitleVisibleEb@Qt_5 5.7.1
 _ZN8QtCharts13QAbstractAxis16setGridLineColorERK6QColor@Qt_5 5.7.1
 _ZN8QtCharts13QAbstractAxis16setLabelsVisibleEb@Qt_5 5.7.1
 _ZN8QtCharts13QAbstractAxis16setShadesVisibleEb@Qt_5 5.7.1
 _ZN8QtCharts13QAbstractAxis16shadesPenChangedERK4QPen@Qt_5 5.7.1
 _ZN8QtCharts13QAbstractAxis16staticMetaObjectE@Qt_5 5.7.1
 _ZN8QtCharts13QAbstractAxis16titleFontChangedERK5QFont@Qt_5 5.7.1
 _ZN8QtCharts13QAbstractAxis16titleTextChangedERK7QString@Qt_5 5.7.1
 _ZN8QtCharts13QAbstractAxis17labelsFontChangedERK5QFont@Qt_5 5.7.1
 _ZN8QtCharts13QAbstractAxis17titleBrushChangedERK6QBrush@Qt_5 5.7.1
 _ZN8QtCharts13QAbstractAxis18gridLinePenChangedERK4QPen@Qt_5 5.7.1
 _ZN8QtCharts13QAbstractAxis18gridVisibleChangedEb@Qt_5 5.7.1
 _ZN8QtCharts13QAbstractAxis18labelsAngleChangedEi@Qt_5 5.7.1
 _ZN8QtCharts13QAbstractAxis18labelsBrushChangedERK6QBrush@Qt_5 5.7.1
 _ZN8QtCharts13QAbstractAxis18labelsColorChangedE6QColor@Qt_5 5.7.1
 _ZN8QtCharts13QAbstractAxis18lineVisibleChangedEb@Qt_5 5.7.1
 _ZN8QtCharts13QAbstractAxis18minorGridLineColorEv@Qt_5 5.7.1
 _ZN8QtCharts13QAbstractAxis18setGridLineVisibleEb@Qt_5 5.7.1
 _ZN8QtCharts13QAbstractAxis18shadesBrushChangedERK6QBrush@Qt_5 5.7.1
 _ZN8QtCharts13QAbstractAxis18shadesColorChangedE6QColor@Qt_5 5.7.1
 _ZN8QtCharts13QAbstractAxis19setMinorGridLinePenERK4QPen@Qt_5 5.7.1
 _ZN8QtCharts13QAbstractAxis19titleVisibleChangedEb@Qt_5 5.7.1
 _ZN8QtCharts13QAbstractAxis20gridLineColorChangedERK6QColor@Qt_5 5.7.1
 _ZN8QtCharts13QAbstractAxis20labelsVisibleChangedEb@Qt_5 5.7.1
 _ZN8QtCharts13QAbstractAxis20setShadesBorderColorE6QColor@Qt_5 5.7.1
 _ZN8QtCharts13QAbstractAxis20shadesVisibleChangedEb@Qt_5 5.7.1
 _ZN8QtCharts13QAbstractAxis21setMinorGridLineColorERK6QColor@Qt_5 5.7.1
 _ZN8QtCharts13QAbstractAxis23minorGridLinePenChangedERK4QPen@Qt_5 5.7.1
 _ZN8QtCharts13QAbstractAxis23minorGridVisibleChangedEb@Qt_5 5.7.1
 _ZN8QtCharts13QAbstractAxis23setMinorGridLineVisibleEb@Qt_5 5.7.1
 _ZN8QtCharts13QAbstractAxis24shadesBorderColorChangedE6QColor@Qt_5 5.7.1
 _ZN8QtCharts13QAbstractAxis25minorGridLineColorChangedERK6QColor@Qt_5 5.7.1
 _ZN8QtCharts13QAbstractAxis4hideEv@Qt_5 5.7.1
 _ZN8QtCharts13QAbstractAxis4showEv@Qt_5 5.7.1
 _ZN8QtCharts13QAbstractAxis6setMaxERK8QVariant@Qt_5 5.7.1
 _ZN8QtCharts13QAbstractAxis6setMinERK8QVariant@Qt_5 5.7.1
 _ZN8QtCharts13QAbstractAxis8setRangeERK8QVariantS3_@Qt_5 5.7.1
 _ZN8QtCharts13QAbstractAxisC1ERNS_20QAbstractAxisPrivateEP7QObject@Qt_5_PRIVATE_API 5.7.1
 _ZN8QtCharts13QAbstractAxisC2ERNS_20QAbstractAxisPrivateEP7QObject@Qt_5_PRIVATE_API 5.7.1
 _ZN8QtCharts13QAbstractAxisD0Ev@Qt_5 5.7.1
 _ZN8QtCharts13QAbstractAxisD1Ev@Qt_5 5.7.1
 _ZN8QtCharts13QAbstractAxisD2Ev@Qt_5 5.7.1
 _ZN8QtCharts13QCategoryAxis11qt_metacallEN11QMetaObject4CallEiPPv@Qt_5 5.7.1
 _ZN8QtCharts13QCategoryAxis11qt_metacastEPKc@Qt_5 5.7.1
 _ZN8QtCharts13QCategoryAxis12replaceLabelERK7QStringS3_@Qt_5 5.7.1
 _ZN8QtCharts13QCategoryAxis13setStartValueEd@Qt_5 5.7.1
 _ZN8QtCharts13QCategoryAxis16categoriesLabelsEv@Qt_5 5.7.1
 _ZN8QtCharts13QCategoryAxis16staticMetaObjectE@Qt_5 5.7.1
 _ZN8QtCharts13QCategoryAxis17categoriesChangedEv@Qt_5 5.7.1
 _ZN8QtCharts13QCategoryAxis17setLabelsPositionENS0_18AxisLabelsPositionE@Qt_5 5.7.1
 _ZN8QtCharts13QCategoryAxis21labelsPositionChangedENS0_18AxisLabelsPositionE@Qt_5 5.7.1
 _ZN8QtCharts13QCategoryAxis6appendERK7QStringd@Qt_5 5.7.1
 _ZN8QtCharts13QCategoryAxis6removeERK7QString@Qt_5 5.7.1
 _ZN8QtCharts13QCategoryAxisC1EP7QObject@Qt_5 5.7.1
 _ZN8QtCharts13QCategoryAxisC1ERNS_20QCategoryAxisPrivateEP7QObject@Qt_5 5.7.1
 _ZN8QtCharts13QCategoryAxisC2EP7QObject@Qt_5 5.7.1
 _ZN8QtCharts13QCategoryAxisC2ERNS_20QCategoryAxisPrivateEP7QObject@Qt_5 5.7.1
 _ZN8QtCharts13QCategoryAxisD0Ev@Qt_5 5.7.1
 _ZN8QtCharts13QCategoryAxisD1Ev@Qt_5 5.7.1
 _ZN8QtCharts13QCategoryAxisD2Ev@Qt_5 5.7.1
 _ZN8QtCharts13QDateTimeAxis10maxChangedE9QDateTime@Qt_5 5.7.1
 _ZN8QtCharts13QDateTimeAxis10minChangedE9QDateTime@Qt_5 5.7.1
 _ZN8QtCharts13QDateTimeAxis11qt_metacallEN11QMetaObject4CallEiPPv@Qt_5 5.7.1
 _ZN8QtCharts13QDateTimeAxis11qt_metacastEPKc@Qt_5 5.7.1
 _ZN8QtCharts13QDateTimeAxis12rangeChangedE9QDateTimeS1_@Qt_5 5.7.1
 _ZN8QtCharts13QDateTimeAxis12setTickCountEi@Qt_5 5.7.1
 _ZN8QtCharts13QDateTimeAxis13formatChangedE7QString@Qt_5 5.7.1
 _ZN8QtCharts13QDateTimeAxis16staticMetaObjectE@Qt_5 5.7.1
 _ZN8QtCharts13QDateTimeAxis16tickCountChangedEi@Qt_5 5.7.1
 _ZN8QtCharts13QDateTimeAxis6setMaxE9QDateTime@Qt_5 5.7.1
 _ZN8QtCharts13QDateTimeAxis6setMinE9QDateTime@Qt_5 5.7.1
 _ZN8QtCharts13QDateTimeAxis8setRangeE9QDateTimeS1_@Qt_5 5.7.1
 _ZN8QtCharts13QDateTimeAxis9setFormatE7QString@Qt_5 5.7.1
 _ZN8QtCharts13QDateTimeAxisC1EP7QObject@Qt_5 5.7.1
 _ZN8QtCharts13QDateTimeAxisC1ERNS_20QDateTimeAxisPrivateEP7QObject@Qt_5 5.7.1
 _ZN8QtCharts13QDateTimeAxisC2EP7QObject@Qt_5 5.7.1
 _ZN8QtCharts13QDateTimeAxisC2ERNS_20QDateTimeAxisPrivateEP7QObject@Qt_5 5.7.1
 _ZN8QtCharts13QDateTimeAxisD0Ev@Qt_5 5.7.1
 _ZN8QtCharts13QDateTimeAxisD1Ev@Qt_5 5.7.1
 _ZN8QtCharts13QDateTimeAxisD2Ev@Qt_5 5.7.1
 _ZN8QtCharts13QLegendMarker10penChangedEv@Qt_5 5.7.1
 _ZN8QtCharts13QLegendMarker10setVisibleEb@Qt_5 5.7.1
 _ZN8QtCharts13QLegendMarker11fontChangedEv@Qt_5 5.7.1
 _ZN8QtCharts13QLegendMarker11qt_metacallEN11QMetaObject4CallEiPPv@Qt_5 5.7.1
 _ZN8QtCharts13QLegendMarker11qt_metacastEPKc@Qt_5 5.7.1
 _ZN8QtCharts13QLegendMarker12brushChangedEv@Qt_5 5.7.1
 _ZN8QtCharts13QLegendMarker12labelChangedEv@Qt_5 5.7.1
 _ZN8QtCharts13QLegendMarker12shapeChangedEv@Qt_5 5.9.0~rc
 _ZN8QtCharts13QLegendMarker13setLabelBrushERK6QBrush@Qt_5 5.7.1
 _ZN8QtCharts13QLegendMarker14visibleChangedEv@Qt_5 5.7.1
 _ZN8QtCharts13QLegendMarker16staticMetaObjectE@Qt_5 5.7.1
 _ZN8QtCharts13QLegendMarker17labelBrushChangedEv@Qt_5 5.7.1
 _ZN8QtCharts13QLegendMarker6setPenERK4QPen@Qt_5 5.7.1
 _ZN8QtCharts13QLegendMarker7clickedEv@Qt_5 5.7.1
 _ZN8QtCharts13QLegendMarker7hoveredEb@Qt_5 5.7.1
 _ZN8QtCharts13QLegendMarker7setFontERK5QFont@Qt_5 5.7.1
 _ZN8QtCharts13QLegendMarker8setBrushERK6QBrush@Qt_5 5.7.1
 _ZN8QtCharts13QLegendMarker8setLabelERK7QString@Qt_5 5.7.1
 _ZN8QtCharts13QLegendMarker8setShapeENS_7QLegend11MarkerShapeE@Qt_5 5.9.0~rc
 _ZN8QtCharts13QLegendMarkerC1ERNS_20QLegendMarkerPrivateEP7QObject@Qt_5 5.7.1
 _ZN8QtCharts13QLegendMarkerC2ERNS_20QLegendMarkerPrivateEP7QObject@Qt_5 5.7.1
 _ZN8QtCharts13QLegendMarkerD0Ev@Qt_5 5.7.1
 _ZN8QtCharts13QLegendMarkerD1Ev@Qt_5 5.7.1
 _ZN8QtCharts13QLegendMarkerD2Ev@Qt_5 5.7.1
 _ZN8QtCharts13QLogValueAxis10maxChangedEd@Qt_5 5.7.1
 _ZN8QtCharts13QLogValueAxis10minChangedEd@Qt_5 5.7.1
 _ZN8QtCharts13QLogValueAxis11baseChangedEd@Qt_5 5.7.1
 _ZN8QtCharts13QLogValueAxis11qt_metacallEN11QMetaObject4CallEiPPv@Qt_5 5.7.1
 _ZN8QtCharts13QLogValueAxis11qt_metacastEPKc@Qt_5 5.7.1
 _ZN8QtCharts13QLogValueAxis12rangeChangedEdd@Qt_5 5.7.1
 _ZN8QtCharts13QLogValueAxis14setLabelFormatERK7QString@Qt_5 5.7.1
 _ZN8QtCharts13QLogValueAxis16staticMetaObjectE@Qt_5 5.7.1
 _ZN8QtCharts13QLogValueAxis16tickCountChangedEi@Qt_5 5.9.0~rc
 _ZN8QtCharts13QLogValueAxis17setMinorTickCountEi@Qt_5 5.9.0~rc
 _ZN8QtCharts13QLogValueAxis18labelFormatChangedERK7QString@Qt_5 5.7.1
 _ZN8QtCharts13QLogValueAxis21minorTickCountChangedEi@Qt_5 5.9.0~rc
 _ZN8QtCharts13QLogValueAxis6setMaxEd@Qt_5 5.7.1
 _ZN8QtCharts13QLogValueAxis6setMinEd@Qt_5 5.7.1
 _ZN8QtCharts13QLogValueAxis7setBaseEd@Qt_5 5.7.1
 _ZN8QtCharts13QLogValueAxis8setRangeEdd@Qt_5 5.7.1
 _ZN8QtCharts13QLogValueAxisC1EP7QObject@Qt_5 5.7.1
 _ZN8QtCharts13QLogValueAxisC1ERNS_20QLogValueAxisPrivateEP7QObject@Qt_5 5.7.1
 _ZN8QtCharts13QLogValueAxisC2EP7QObject@Qt_5 5.7.1
 _ZN8QtCharts13QLogValueAxisC2ERNS_20QLogValueAxisPrivateEP7QObject@Qt_5 5.7.1
 _ZN8QtCharts13QLogValueAxisD0Ev@Qt_5 5.7.1
 _ZN8QtCharts13QLogValueAxisD1Ev@Qt_5 5.7.1
 _ZN8QtCharts13QLogValueAxisD2Ev@Qt_5 5.7.1
 _ZN8QtCharts13QSplineSeries11qt_metacallEN11QMetaObject4CallEiPPv@Qt_5 5.7.1
 _ZN8QtCharts13QSplineSeries11qt_metacastEPKc@Qt_5 5.7.1
 _ZN8QtCharts13QSplineSeries16staticMetaObjectE@Qt_5 5.7.1
 _ZN8QtCharts13QSplineSeriesC1EP7QObject@Qt_5 5.7.1
 _ZN8QtCharts13QSplineSeriesC2EP7QObject@Qt_5 5.7.1
 _ZN8QtCharts13QSplineSeriesD0Ev@Qt_5 5.7.1
 _ZN8QtCharts13QSplineSeriesD1Ev@Qt_5 5.7.1
 _ZN8QtCharts13QSplineSeriesD2Ev@Qt_5 5.7.1
 _ZN8QtCharts14QBoxPlotSeries10penChangedEv@Qt_5 5.7.1
 _ZN8QtCharts14QBoxPlotSeries11qt_metacallEN11QMetaObject4CallEiPPv@Qt_5 5.7.1
 _ZN8QtCharts14QBoxPlotSeries11qt_metacastEPKc@Qt_5 5.7.1
 _ZN8QtCharts14QBoxPlotSeries11setBoxWidthEd@Qt_5 5.7.1
 _ZN8QtCharts14QBoxPlotSeries12boxsetsAddedE5QListIPNS_7QBoxSetEE@Qt_5 5.7.1
 _ZN8QtCharts14QBoxPlotSeries12brushChangedEv@Qt_5 5.7.1
 _ZN8QtCharts14QBoxPlotSeries12countChangedEv@Qt_5 5.7.1
 _ZN8QtCharts14QBoxPlotSeries13doubleClickedEPNS_7QBoxSetE@Qt_5 5.7.1
 _ZN8QtCharts14QBoxPlotSeries14boxsetsRemovedE5QListIPNS_7QBoxSetEE@Qt_5 5.7.1
 _ZN8QtCharts14QBoxPlotSeries15boxWidthChangedEv@Qt_5 5.7.1
 _ZN8QtCharts14QBoxPlotSeries16staticMetaObjectE@Qt_5 5.7.1
 _ZN8QtCharts14QBoxPlotSeries17boxOutlineVisibleEv@Qt_5 5.7.1
 _ZN8QtCharts14QBoxPlotSeries20setBoxOutlineVisibleEb@Qt_5 5.7.1
 _ZN8QtCharts14QBoxPlotSeries27boxOutlineVisibilityChangedEv@Qt_5 5.7.1
 _ZN8QtCharts14QBoxPlotSeries4takeEPNS_7QBoxSetE@Qt_5 5.7.1
 _ZN8QtCharts14QBoxPlotSeries5clearEv@Qt_5 5.7.1
 _ZN8QtCharts14QBoxPlotSeries6appendE5QListIPNS_7QBoxSetEE@Qt_5 5.7.1
 _ZN8QtCharts14QBoxPlotSeries6appendEPNS_7QBoxSetE@Qt_5 5.7.1
 _ZN8QtCharts14QBoxPlotSeries6insertEiPNS_7QBoxSetE@Qt_5 5.7.1
 _ZN8QtCharts14QBoxPlotSeries6removeEPNS_7QBoxSetE@Qt_5 5.7.1
 _ZN8QtCharts14QBoxPlotSeries6setPenERK4QPen@Qt_5 5.7.1
 _ZN8QtCharts14QBoxPlotSeries7clickedEPNS_7QBoxSetE@Qt_5 5.7.1
 _ZN8QtCharts14QBoxPlotSeries7hoveredEbPNS_7QBoxSetE@Qt_5 5.7.1
 _ZN8QtCharts14QBoxPlotSeries7pressedEPNS_7QBoxSetE@Qt_5 5.7.1
 _ZN8QtCharts14QBoxPlotSeries8boxWidthEv@Qt_5 5.7.1
 _ZN8QtCharts14QBoxPlotSeries8releasedEPNS_7QBoxSetE@Qt_5 5.7.1
 _ZN8QtCharts14QBoxPlotSeries8setBrushERK6QBrush@Qt_5 5.7.1
 _ZN8QtCharts14QBoxPlotSeriesC1EP7QObject@Qt_5 5.7.1
 _ZN8QtCharts14QBoxPlotSeriesC2EP7QObject@Qt_5 5.7.1
 _ZN8QtCharts14QBoxPlotSeriesD0Ev@Qt_5 5.7.1
 _ZN8QtCharts14QBoxPlotSeriesD1Ev@Qt_5 5.7.1
 _ZN8QtCharts14QBoxPlotSeriesD2Ev@Qt_5 5.7.1
 _ZN8QtCharts14QScatterSeries11qt_metacallEN11QMetaObject4CallEiPPv@Qt_5 5.7.1
 _ZN8QtCharts14QScatterSeries11qt_metacastEPKc@Qt_5 5.7.1
 _ZN8QtCharts14QScatterSeries12colorChangedE6QColor@Qt_5 5.7.1
 _ZN8QtCharts14QScatterSeries13setMarkerSizeEd@Qt_5 5.7.1
 _ZN8QtCharts14QScatterSeries14setBorderColorERK6QColor@Qt_5 5.7.1
 _ZN8QtCharts14QScatterSeries14setMarkerShapeENS0_11MarkerShapeE@Qt_5 5.7.1
 _ZN8QtCharts14QScatterSeries16staticMetaObjectE@Qt_5 5.7.1
 _ZN8QtCharts14QScatterSeries17markerSizeChangedEd@Qt_5 5.7.1
 _ZN8QtCharts14QScatterSeries18borderColorChangedE6QColor@Qt_5 5.7.1
 _ZN8QtCharts14QScatterSeries18markerShapeChangedENS0_11MarkerShapeE@Qt_5 5.7.1
 _ZN8QtCharts14QScatterSeries6setPenERK4QPen@Qt_5 5.7.1
 _ZN8QtCharts14QScatterSeries8setBrushERK6QBrush@Qt_5 5.7.1
 _ZN8QtCharts14QScatterSeries8setColorERK6QColor@Qt_5 5.7.1
 _ZN8QtCharts14QScatterSeriesC1EP7QObject@Qt_5 5.7.1
 _ZN8QtCharts14QScatterSeriesC2EP7QObject@Qt_5 5.7.1
 _ZN8QtCharts14QScatterSeriesD0Ev@Qt_5 5.7.1
 _ZN8QtCharts14QScatterSeriesD1Ev@Qt_5 5.7.1
 _ZN8QtCharts14QScatterSeriesD2Ev@Qt_5 5.7.1
 _ZN8QtCharts14QXYModelMapper11qt_metacallEN11QMetaObject4CallEiPPv@Qt_5 5.7.1
 _ZN8QtCharts14QXYModelMapper11qt_metacastEPKc@Qt_5 5.7.1
 _ZN8QtCharts14QXYModelMapper11setXSectionEi@Qt_5 5.7.1
 _ZN8QtCharts14QXYModelMapper11setYSectionEi@Qt_5 5.7.1
 _ZN8QtCharts14QXYModelMapper14setOrientationEN2Qt11OrientationE@Qt_5 5.7.1
 _ZN8QtCharts14QXYModelMapper16staticMetaObjectE@Qt_5 5.7.1
 _ZN8QtCharts14QXYModelMapper8setCountEi@Qt_5 5.7.1
 _ZN8QtCharts14QXYModelMapper8setFirstEi@Qt_5 5.7.1
 _ZN8QtCharts14QXYModelMapper8setModelEP18QAbstractItemModel@Qt_5 5.7.1
 _ZN8QtCharts14QXYModelMapper9setSeriesEPNS_9QXYSeriesE@Qt_5 5.7.1
 _ZN8QtCharts14QXYModelMapperC1EP7QObject@Qt_5 5.7.1
 _ZN8QtCharts14QXYModelMapperC2EP7QObject@Qt_5 5.7.1
 _ZN8QtCharts15QAbstractSeries10attachAxisEPNS_13QAbstractAxisE@Qt_5 5.7.1
 _ZN8QtCharts15QAbstractSeries10detachAxisEPNS_13QAbstractAxisE@Qt_5 5.7.1
 _ZN8QtCharts15QAbstractSeries10setOpacityEd@Qt_5 5.7.1
 _ZN8QtCharts15QAbstractSeries10setVisibleEb@Qt_5 5.7.1
 _ZN8QtCharts15QAbstractSeries11nameChangedEv@Qt_5 5.7.1
 _ZN8QtCharts15QAbstractSeries11qt_metacallEN11QMetaObject4CallEiPPv@Qt_5 5.7.1
 _ZN8QtCharts15QAbstractSeries11qt_metacastEPKc@Qt_5 5.7.1
 _ZN8QtCharts15QAbstractSeries12attachedAxesEv@Qt_5 5.7.1
 _ZN8QtCharts15QAbstractSeries12setUseOpenGLEb@Qt_5 5.7.1
 _ZN8QtCharts15QAbstractSeries14opacityChangedEv@Qt_5 5.7.1
 _ZN8QtCharts15QAbstractSeries14visibleChangedEv@Qt_5 5.7.1
 _ZN8QtCharts15QAbstractSeries16staticMetaObjectE@Qt_5 5.7.1
 _ZN8QtCharts15QAbstractSeries16useOpenGLChangedEv@Qt_5 5.7.1
 _ZN8QtCharts15QAbstractSeries4hideEv@Qt_5 5.7.1
 _ZN8QtCharts15QAbstractSeries4showEv@Qt_5 5.7.1
 _ZN8QtCharts15QAbstractSeries7setNameERK7QString@Qt_5 5.7.1
 _ZN8QtCharts15QAbstractSeriesC1ERNS_22QAbstractSeriesPrivateEP7QObject@Qt_5 5.7.1
 _ZN8QtCharts15QAbstractSeriesC2ERNS_22QAbstractSeriesPrivateEP7QObject@Qt_5 5.7.1
 _ZN8QtCharts15QAbstractSeriesD0Ev@Qt_5 5.7.1
 _ZN8QtCharts15QAbstractSeriesD1Ev@Qt_5 5.7.1
 _ZN8QtCharts15QAbstractSeriesD2Ev@Qt_5 5.7.1
 _ZN8QtCharts15QBarModelMapper11qt_metacallEN11QMetaObject4CallEiPPv@Qt_5 5.7.1
 _ZN8QtCharts15QBarModelMapper11qt_metacastEPKc@Qt_5 5.7.1
 _ZN8QtCharts15QBarModelMapper14setOrientationEN2Qt11OrientationE@Qt_5 5.7.1
 _ZN8QtCharts15QBarModelMapper16staticMetaObjectE@Qt_5 5.7.1
 _ZN8QtCharts15QBarModelMapper20setLastBarSetSectionEi@Qt_5 5.7.1
 _ZN8QtCharts15QBarModelMapper21setFirstBarSetSectionEi@Qt_5 5.7.1
 _ZN8QtCharts15QBarModelMapper8setCountEi@Qt_5 5.7.1
 _ZN8QtCharts15QBarModelMapper8setFirstEi@Qt_5 5.7.1
 _ZN8QtCharts15QBarModelMapper8setModelEP18QAbstractItemModel@Qt_5 5.7.1
 _ZN8QtCharts15QBarModelMapper9setSeriesEPNS_18QAbstractBarSeriesE@Qt_5 5.7.1
 _ZN8QtCharts15QBarModelMapperC1EP7QObject@Qt_5 5.7.1
 _ZN8QtCharts15QBarModelMapperC2EP7QObject@Qt_5 5.7.1
 _ZN8QtCharts15QCandlestickSet10lowChangedEv@Qt_5 5.9.0~rc
 _ZN8QtCharts15QCandlestickSet10penChangedEv@Qt_5 5.9.0~rc
 _ZN8QtCharts15QCandlestickSet11highChangedEv@Qt_5 5.9.0~rc
 _ZN8QtCharts15QCandlestickSet11openChangedEv@Qt_5 5.9.0~rc
 _ZN8QtCharts15QCandlestickSet11qt_metacallEN11QMetaObject4CallEiPPv@Qt_5 5.9.0~rc
 _ZN8QtCharts15QCandlestickSet11qt_metacastEPKc@Qt_5 5.9.0~rc
 _ZN8QtCharts15QCandlestickSet12brushChangedEv@Qt_5 5.9.0~rc
 _ZN8QtCharts15QCandlestickSet12closeChangedEv@Qt_5 5.9.0~rc
 _ZN8QtCharts15QCandlestickSet12setTimestampEd@Qt_5 5.9.0~rc
 _ZN8QtCharts15QCandlestickSet13doubleClickedEv@Qt_5 5.9.0~rc
 _ZN8QtCharts15QCandlestickSet16staticMetaObjectE@Qt_5 5.9.0~rc
 _ZN8QtCharts15QCandlestickSet16timestampChangedEv@Qt_5 5.9.0~rc
 _ZN8QtCharts15QCandlestickSet6setLowEd@Qt_5 5.9.0~rc
 _ZN8QtCharts15QCandlestickSet6setPenERK4QPen@Qt_5 5.9.0~rc
 _ZN8QtCharts15QCandlestickSet7clickedEv@Qt_5 5.9.0~rc
 _ZN8QtCharts15QCandlestickSet7hoveredEb@Qt_5 5.9.0~rc
 _ZN8QtCharts15QCandlestickSet7pressedEv@Qt_5 5.9.0~rc
 _ZN8QtCharts15QCandlestickSet7setHighEd@Qt_5 5.9.0~rc
 _ZN8QtCharts15QCandlestickSet7setOpenEd@Qt_5 5.9.0~rc
 _ZN8QtCharts15QCandlestickSet8releasedEv@Qt_5 5.9.0~rc
 _ZN8QtCharts15QCandlestickSet8setBrushERK6QBrush@Qt_5 5.9.0~rc
 _ZN8QtCharts15QCandlestickSet8setCloseEd@Qt_5 5.9.0~rc
 _ZN8QtCharts15QCandlestickSetC1EdP7QObject@Qt_5 5.9.0~rc
 _ZN8QtCharts15QCandlestickSetC1EdddddP7QObject@Qt_5 5.9.0~rc
 _ZN8QtCharts15QCandlestickSetC2EdP7QObject@Qt_5 5.9.0~rc
 _ZN8QtCharts15QCandlestickSetC2EdddddP7QObject@Qt_5 5.9.0~rc
 _ZN8QtCharts15QCandlestickSetD0Ev@Qt_5 5.9.0~rc
 _ZN8QtCharts15QCandlestickSetD1Ev@Qt_5 5.9.0~rc
 _ZN8QtCharts15QCandlestickSetD2Ev@Qt_5 5.9.0~rc
 _ZN8QtCharts15QHXYModelMapper11qt_metacallEN11QMetaObject4CallEiPPv@Qt_5 5.7.1
 _ZN8QtCharts15QHXYModelMapper11qt_metacastEPKc@Qt_5 5.7.1
 _ZN8QtCharts15QHXYModelMapper11xRowChangedEv@Qt_5 5.7.1
 _ZN8QtCharts15QHXYModelMapper11yRowChangedEv@Qt_5 5.7.1
 _ZN8QtCharts15QHXYModelMapper13modelReplacedEv@Qt_5 5.7.1
 _ZN8QtCharts15QHXYModelMapper14seriesReplacedEv@Qt_5 5.7.1
 _ZN8QtCharts15QHXYModelMapper14setColumnCountEi@Qt_5 5.7.1
 _ZN8QtCharts15QHXYModelMapper14setFirstColumnEi@Qt_5 5.7.1
 _ZN8QtCharts15QHXYModelMapper16staticMetaObjectE@Qt_5 5.7.1
 _ZN8QtCharts15QHXYModelMapper18columnCountChangedEv@Qt_5 5.7.1
 _ZN8QtCharts15QHXYModelMapper18firstColumnChangedEv@Qt_5 5.7.1
 _ZN8QtCharts15QHXYModelMapper7setXRowEi@Qt_5 5.7.1
 _ZN8QtCharts15QHXYModelMapper7setYRowEi@Qt_5 5.7.1
 _ZN8QtCharts15QHXYModelMapper8setModelEP18QAbstractItemModel@Qt_5 5.7.1
 _ZN8QtCharts15QHXYModelMapper9setSeriesEPNS_9QXYSeriesE@Qt_5 5.7.1
 _ZN8QtCharts15QHXYModelMapperC1EP7QObject@Qt_5 5.7.1
 _ZN8QtCharts15QHXYModelMapperC2EP7QObject@Qt_5 5.7.1
 _ZN8QtCharts15QPieModelMapper11qt_metacallEN11QMetaObject4CallEiPPv@Qt_5 5.7.1
 _ZN8QtCharts15QPieModelMapper11qt_metacastEPKc@Qt_5 5.7.1
 _ZN8QtCharts15QPieModelMapper14setOrientationEN2Qt11OrientationE@Qt_5 5.7.1
 _ZN8QtCharts15QPieModelMapper16setLabelsSectionEi@Qt_5 5.7.1
 _ZN8QtCharts15QPieModelMapper16setValuesSectionEi@Qt_5 5.7.1
 _ZN8QtCharts15QPieModelMapper16staticMetaObjectE@Qt_5 5.7.1
 _ZN8QtCharts15QPieModelMapper8setCountEi@Qt_5 5.7.1
 _ZN8QtCharts15QPieModelMapper8setFirstEi@Qt_5 5.7.1
 _ZN8QtCharts15QPieModelMapper8setModelEP18QAbstractItemModel@Qt_5 5.7.1
 _ZN8QtCharts15QPieModelMapper9setSeriesEPNS_10QPieSeriesE@Qt_5 5.7.1
 _ZN8QtCharts15QPieModelMapperC1EP7QObject@Qt_5 5.7.1
 _ZN8QtCharts15QPieModelMapperC2EP7QObject@Qt_5 5.7.1
 _ZN8QtCharts15QVXYModelMapper10setXColumnEi@Qt_5 5.7.1
 _ZN8QtCharts15QVXYModelMapper10setYColumnEi@Qt_5 5.7.1
 _ZN8QtCharts15QVXYModelMapper11qt_metacallEN11QMetaObject4CallEiPPv@Qt_5 5.7.1
 _ZN8QtCharts15QVXYModelMapper11qt_metacastEPKc@Qt_5 5.7.1
 _ZN8QtCharts15QVXYModelMapper11setFirstRowEi@Qt_5 5.7.1
 _ZN8QtCharts15QVXYModelMapper11setRowCountEi@Qt_5 5.7.1
 _ZN8QtCharts15QVXYModelMapper13modelReplacedEv@Qt_5 5.7.1
 _ZN8QtCharts15QVXYModelMapper14seriesReplacedEv@Qt_5 5.7.1
 _ZN8QtCharts15QVXYModelMapper14xColumnChangedEv@Qt_5 5.7.1
 _ZN8QtCharts15QVXYModelMapper14yColumnChangedEv@Qt_5 5.7.1
 _ZN8QtCharts15QVXYModelMapper15firstRowChangedEv@Qt_5 5.7.1
 _ZN8QtCharts15QVXYModelMapper15rowCountChangedEv@Qt_5 5.7.1
 _ZN8QtCharts15QVXYModelMapper16staticMetaObjectE@Qt_5 5.7.1
 _ZN8QtCharts15QVXYModelMapper8setModelEP18QAbstractItemModel@Qt_5 5.7.1
 _ZN8QtCharts15QVXYModelMapper9setSeriesEPNS_9QXYSeriesE@Qt_5 5.7.1
 _ZN8QtCharts15QVXYModelMapperC1EP7QObject@Qt_5 5.7.1
 _ZN8QtCharts15QVXYModelMapperC2EP7QObject@Qt_5 5.7.1
 _ZN8QtCharts15QXYLegendMarker11qt_metacallEN11QMetaObject4CallEiPPv@Qt_5 5.7.1
 _ZN8QtCharts15QXYLegendMarker11qt_metacastEPKc@Qt_5 5.7.1
 _ZN8QtCharts15QXYLegendMarker16staticMetaObjectE@Qt_5 5.7.1
 _ZN8QtCharts15QXYLegendMarker6seriesEv@Qt_5 5.7.1
 _ZN8QtCharts15QXYLegendMarkerC1EPNS_9QXYSeriesEPNS_7QLegendEP7QObject@Qt_5 5.7.1
 _ZN8QtCharts15QXYLegendMarkerC1ERNS_22QXYLegendMarkerPrivateEP7QObject@Qt_5 5.7.1
 _ZN8QtCharts15QXYLegendMarkerC2EPNS_9QXYSeriesEPNS_7QLegendEP7QObject@Qt_5 5.7.1
 _ZN8QtCharts15QXYLegendMarkerC2ERNS_22QXYLegendMarkerPrivateEP7QObject@Qt_5 5.7.1
 _ZN8QtCharts15QXYLegendMarkerD0Ev@Qt_5 5.7.1
 _ZN8QtCharts15QXYLegendMarkerD1Ev@Qt_5 5.7.1
 _ZN8QtCharts15QXYLegendMarkerD2Ev@Qt_5 5.7.1
 _ZN8QtCharts16QBarCategoryAxis10categoriesEv@Qt_5 5.7.1
 _ZN8QtCharts16QBarCategoryAxis10maxChangedERK7QString@Qt_5 5.7.1
 _ZN8QtCharts16QBarCategoryAxis10minChangedERK7QString@Qt_5 5.7.1
 _ZN8QtCharts16QBarCategoryAxis11qt_metacallEN11QMetaObject4CallEiPPv@Qt_5 5.7.1
 _ZN8QtCharts16QBarCategoryAxis11qt_metacastEPKc@Qt_5 5.7.1
 _ZN8QtCharts16QBarCategoryAxis12countChangedEv@Qt_5 5.7.1
 _ZN8QtCharts16QBarCategoryAxis12rangeChangedERK7QStringS3_@Qt_5 5.7.1
 _ZN8QtCharts16QBarCategoryAxis13setCategoriesERK11QStringList@Qt_5 5.7.1
 _ZN8QtCharts16QBarCategoryAxis16staticMetaObjectE@Qt_5 5.7.1
 _ZN8QtCharts16QBarCategoryAxis17categoriesChangedEv@Qt_5 5.7.1
 _ZN8QtCharts16QBarCategoryAxis5clearEv@Qt_5 5.7.1
 _ZN8QtCharts16QBarCategoryAxis6appendERK11QStringList@Qt_5 5.7.1
 _ZN8QtCharts16QBarCategoryAxis6appendERK7QString@Qt_5 5.7.1
 _ZN8QtCharts16QBarCategoryAxis6insertEiRK7QString@Qt_5 5.7.1
 _ZN8QtCharts16QBarCategoryAxis6removeERK7QString@Qt_5 5.7.1
 _ZN8QtCharts16QBarCategoryAxis6setMaxERK7QString@Qt_5 5.7.1
 _ZN8QtCharts16QBarCategoryAxis6setMinERK7QString@Qt_5 5.7.1
 _ZN8QtCharts16QBarCategoryAxis7replaceERK7QStringS3_@Qt_5 5.7.1
 _ZN8QtCharts16QBarCategoryAxis8setRangeERK7QStringS3_@Qt_5 5.7.1
 _ZN8QtCharts16QBarCategoryAxisC1EP7QObject@Qt_5 5.7.1
 _ZN8QtCharts16QBarCategoryAxisC1ERNS_23QBarCategoryAxisPrivateEP7QObject@Qt_5 5.7.1
 _ZN8QtCharts16QBarCategoryAxisC2EP7QObject@Qt_5 5.7.1
 _ZN8QtCharts16QBarCategoryAxisC2ERNS_23QBarCategoryAxisPrivateEP7QObject@Qt_5 5.7.1
 _ZN8QtCharts16QBarCategoryAxisD0Ev@Qt_5 5.7.1
 _ZN8QtCharts16QBarCategoryAxisD1Ev@Qt_5 5.7.1
 _ZN8QtCharts16QBarCategoryAxisD2Ev@Qt_5 5.7.1
 _ZN8QtCharts16QBarLegendMarker11qt_metacallEN11QMetaObject4CallEiPPv@Qt_5 5.7.1
 _ZN8QtCharts16QBarLegendMarker11qt_metacastEPKc@Qt_5 5.7.1
 _ZN8QtCharts16QBarLegendMarker16staticMetaObjectE@Qt_5 5.7.1
 _ZN8QtCharts16QBarLegendMarker6barsetEv@Qt_5 5.7.1
 _ZN8QtCharts16QBarLegendMarker6seriesEv@Qt_5 5.7.1
 _ZN8QtCharts16QBarLegendMarkerC1EPNS_18QAbstractBarSeriesEPNS_7QBarSetEPNS_7QLegendEP7QObject@Qt_5 5.7.1
 _ZN8QtCharts16QBarLegendMarkerC1ERNS_23QBarLegendMarkerPrivateEP7QObject@Qt_5 5.7.1
 _ZN8QtCharts16QBarLegendMarkerC2EPNS_18QAbstractBarSeriesEPNS_7QBarSetEPNS_7QLegendEP7QObject@Qt_5 5.7.1
 _ZN8QtCharts16QBarLegendMarkerC2ERNS_23QBarLegendMarkerPrivateEP7QObject@Qt_5 5.7.1
 _ZN8QtCharts16QBarLegendMarkerD0Ev@Qt_5 5.7.1
 _ZN8QtCharts16QBarLegendMarkerD1Ev@Qt_5 5.7.1
 _ZN8QtCharts16QBarLegendMarkerD2Ev@Qt_5 5.7.1
 _ZN8QtCharts16QHBarModelMapper11qt_metacallEN11QMetaObject4CallEiPPv@Qt_5 5.7.1
 _ZN8QtCharts16QHBarModelMapper11qt_metacastEPKc@Qt_5 5.7.1
 _ZN8QtCharts16QHBarModelMapper13modelReplacedEv@Qt_5 5.7.1
 _ZN8QtCharts16QHBarModelMapper14seriesReplacedEv@Qt_5 5.7.1
 _ZN8QtCharts16QHBarModelMapper14setColumnCountEi@Qt_5 5.7.1
 _ZN8QtCharts16QHBarModelMapper14setFirstColumnEi@Qt_5 5.7.1
 _ZN8QtCharts16QHBarModelMapper16setLastBarSetRowEi@Qt_5 5.7.1
 _ZN8QtCharts16QHBarModelMapper16staticMetaObjectE@Qt_5 5.7.1
 _ZN8QtCharts16QHBarModelMapper17setFirstBarSetRowEi@Qt_5 5.7.1
 _ZN8QtCharts16QHBarModelMapper18columnCountChangedEv@Qt_5 5.7.1
 _ZN8QtCharts16QHBarModelMapper18firstColumnChangedEv@Qt_5 5.7.1
 _ZN8QtCharts16QHBarModelMapper20lastBarSetRowChangedEv@Qt_5 5.7.1
 _ZN8QtCharts16QHBarModelMapper21firstBarSetRowChangedEv@Qt_5 5.7.1
 _ZN8QtCharts16QHBarModelMapper8setModelEP18QAbstractItemModel@Qt_5 5.7.1
 _ZN8QtCharts16QHBarModelMapper9setSeriesEPNS_18QAbstractBarSeriesE@Qt_5 5.7.1
 _ZN8QtCharts16QHBarModelMapperC1EP7QObject@Qt_5 5.7.1
 _ZN8QtCharts16QHBarModelMapperC2EP7QObject@Qt_5 5.7.1
 _ZN8QtCharts16QHPieModelMapper11qt_metacallEN11QMetaObject4CallEiPPv@Qt_5 5.7.1
 _ZN8QtCharts16QHPieModelMapper11qt_metacastEPKc@Qt_5 5.7.1
 _ZN8QtCharts16QHPieModelMapper12setLabelsRowEi@Qt_5 5.7.1
 _ZN8QtCharts16QHPieModelMapper12setValuesRowEi@Qt_5 5.7.1
 _ZN8QtCharts16QHPieModelMapper13modelReplacedEv@Qt_5 5.7.1
 _ZN8QtCharts16QHPieModelMapper14seriesReplacedEv@Qt_5 5.7.1
 _ZN8QtCharts16QHPieModelMapper14setColumnCountEi@Qt_5 5.7.1
 _ZN8QtCharts16QHPieModelMapper14setFirstColumnEi@Qt_5 5.7.1
 _ZN8QtCharts16QHPieModelMapper16labelsRowChangedEv@Qt_5 5.7.1
 _ZN8QtCharts16QHPieModelMapper16staticMetaObjectE@Qt_5 5.7.1
 _ZN8QtCharts16QHPieModelMapper16valuesRowChangedEv@Qt_5 5.7.1
 _ZN8QtCharts16QHPieModelMapper18columnCountChangedEv@Qt_5 5.7.1
 _ZN8QtCharts16QHPieModelMapper18firstColumnChangedEv@Qt_5 5.7.1
 _ZN8QtCharts16QHPieModelMapper8setModelEP18QAbstractItemModel@Qt_5 5.7.1
 _ZN8QtCharts16QHPieModelMapper9setSeriesEPNS_10QPieSeriesE@Qt_5 5.7.1
 _ZN8QtCharts16QHPieModelMapperC1EP7QObject@Qt_5 5.7.1
 _ZN8QtCharts16QHPieModelMapperC2EP7QObject@Qt_5 5.7.1
 _ZN8QtCharts16QPieLegendMarker11qt_metacallEN11QMetaObject4CallEiPPv@Qt_5 5.7.1
 _ZN8QtCharts16QPieLegendMarker11qt_metacastEPKc@Qt_5 5.7.1
 _ZN8QtCharts16QPieLegendMarker16staticMetaObjectE@Qt_5 5.7.1
 _ZN8QtCharts16QPieLegendMarker5sliceEv@Qt_5 5.7.1
 _ZN8QtCharts16QPieLegendMarker6seriesEv@Qt_5 5.7.1
 _ZN8QtCharts16QPieLegendMarkerC1EPNS_10QPieSeriesEPNS_9QPieSliceEPNS_7QLegendEP7QObject@Qt_5 5.7.1
 _ZN8QtCharts16QPieLegendMarkerC1ERNS_23QPieLegendMarkerPrivateEP7QObject@Qt_5 5.7.1
 _ZN8QtCharts16QPieLegendMarkerC2EPNS_10QPieSeriesEPNS_9QPieSliceEPNS_7QLegendEP7QObject@Qt_5 5.7.1
 _ZN8QtCharts16QPieLegendMarkerC2ERNS_23QPieLegendMarkerPrivateEP7QObject@Qt_5 5.7.1
 _ZN8QtCharts16QPieLegendMarkerD0Ev@Qt_5 5.7.1
 _ZN8QtCharts16QPieLegendMarkerD1Ev@Qt_5 5.7.1
 _ZN8QtCharts16QPieLegendMarkerD2Ev@Qt_5 5.7.1
 _ZN8QtCharts16QVBarModelMapper11qt_metacallEN11QMetaObject4CallEiPPv@Qt_5 5.7.1
 _ZN8QtCharts16QVBarModelMapper11qt_metacastEPKc@Qt_5 5.7.1
 _ZN8QtCharts16QVBarModelMapper11setFirstRowEi@Qt_5 5.7.1
 _ZN8QtCharts16QVBarModelMapper11setRowCountEi@Qt_5 5.7.1
 _ZN8QtCharts16QVBarModelMapper13modelReplacedEv@Qt_5 5.7.1
 _ZN8QtCharts16QVBarModelMapper14seriesReplacedEv@Qt_5 5.7.1
 _ZN8QtCharts16QVBarModelMapper15firstRowChangedEv@Qt_5 5.7.1
 _ZN8QtCharts16QVBarModelMapper15rowCountChangedEv@Qt_5 5.7.1
 _ZN8QtCharts16QVBarModelMapper16staticMetaObjectE@Qt_5 5.7.1
 _ZN8QtCharts16QVBarModelMapper19setLastBarSetColumnEi@Qt_5 5.7.1
 _ZN8QtCharts16QVBarModelMapper20setFirstBarSetColumnEi@Qt_5 5.7.1
 _ZN8QtCharts16QVBarModelMapper23lastBarSetColumnChangedEv@Qt_5 5.7.1
 _ZN8QtCharts16QVBarModelMapper24firstBarSetColumnChangedEv@Qt_5 5.7.1
 _ZN8QtCharts16QVBarModelMapper8setModelEP18QAbstractItemModel@Qt_5 5.7.1
 _ZN8QtCharts16QVBarModelMapper9setSeriesEPNS_18QAbstractBarSeriesE@Qt_5 5.7.1
 _ZN8QtCharts16QVBarModelMapperC1EP7QObject@Qt_5 5.7.1
 _ZN8QtCharts16QVBarModelMapperC2EP7QObject@Qt_5 5.7.1
 _ZN8QtCharts16QVPieModelMapper11qt_metacallEN11QMetaObject4CallEiPPv@Qt_5 5.7.1
 _ZN8QtCharts16QVPieModelMapper11qt_metacastEPKc@Qt_5 5.7.1
 _ZN8QtCharts16QVPieModelMapper11setFirstRowEi@Qt_5 5.7.1
 _ZN8QtCharts16QVPieModelMapper11setRowCountEi@Qt_5 5.7.1
 _ZN8QtCharts16QVPieModelMapper13modelReplacedEv@Qt_5 5.7.1
 _ZN8QtCharts16QVPieModelMapper14seriesReplacedEv@Qt_5 5.7.1
 _ZN8QtCharts16QVPieModelMapper15firstRowChangedEv@Qt_5 5.7.1
 _ZN8QtCharts16QVPieModelMapper15rowCountChangedEv@Qt_5 5.7.1
 _ZN8QtCharts16QVPieModelMapper15setLabelsColumnEi@Qt_5 5.7.1
 _ZN8QtCharts16QVPieModelMapper15setValuesColumnEi@Qt_5 5.7.1
 _ZN8QtCharts16QVPieModelMapper16staticMetaObjectE@Qt_5 5.7.1
 _ZN8QtCharts16QVPieModelMapper19labelsColumnChangedEv@Qt_5 5.7.1
 _ZN8QtCharts16QVPieModelMapper19valuesColumnChangedEv@Qt_5 5.7.1
 _ZN8QtCharts16QVPieModelMapper8setModelEP18QAbstractItemModel@Qt_5 5.7.1
 _ZN8QtCharts16QVPieModelMapper9setSeriesEPNS_10QPieSeriesE@Qt_5 5.7.1
 _ZN8QtCharts16QVPieModelMapperC1EP7QObject@Qt_5 5.7.1
 _ZN8QtCharts16QVPieModelMapperC2EP7QObject@Qt_5 5.7.1
 _ZN8QtCharts17QAreaLegendMarker11qt_metacallEN11QMetaObject4CallEiPPv@Qt_5 5.7.1
 _ZN8QtCharts17QAreaLegendMarker11qt_metacastEPKc@Qt_5 5.7.1
 _ZN8QtCharts17QAreaLegendMarker16staticMetaObjectE@Qt_5 5.7.1
 _ZN8QtCharts17QAreaLegendMarker6seriesEv@Qt_5 5.7.1
 _ZN8QtCharts17QAreaLegendMarkerC1EPNS_11QAreaSeriesEPNS_7QLegendEP7QObject@Qt_5 5.7.1
 _ZN8QtCharts17QAreaLegendMarkerC1ERNS_24QAreaLegendMarkerPrivateEP7QObject@Qt_5 5.7.1
 _ZN8QtCharts17QAreaLegendMarkerC2EPNS_11QAreaSeriesEPNS_7QLegendEP7QObject@Qt_5 5.7.1
 _ZN8QtCharts17QAreaLegendMarkerC2ERNS_24QAreaLegendMarkerPrivateEP7QObject@Qt_5 5.7.1
 _ZN8QtCharts17QAreaLegendMarkerD0Ev@Qt_5 5.7.1
 _ZN8QtCharts17QAreaLegendMarkerD1Ev@Qt_5 5.7.1
 _ZN8QtCharts17QAreaLegendMarkerD2Ev@Qt_5 5.7.1
 _ZN8QtCharts17QPercentBarSeries11qt_metacallEN11QMetaObject4CallEiPPv@Qt_5 5.7.1
 _ZN8QtCharts17QPercentBarSeries11qt_metacastEPKc@Qt_5 5.7.1
 _ZN8QtCharts17QPercentBarSeries16staticMetaObjectE@Qt_5 5.7.1
 _ZN8QtCharts17QPercentBarSeriesC1EP7QObject@Qt_5 5.7.1
 _ZN8QtCharts17QPercentBarSeriesC2EP7QObject@Qt_5 5.7.1
 _ZN8QtCharts17QPercentBarSeriesD0Ev@Qt_5 5.7.1
 _ZN8QtCharts17QPercentBarSeriesD1Ev@Qt_5 5.7.1
 _ZN8QtCharts17QPercentBarSeriesD2Ev@Qt_5 5.7.1
 _ZN8QtCharts17QStackedBarSeries11qt_metacallEN11QMetaObject4CallEiPPv@Qt_5 5.7.1
 _ZN8QtCharts17QStackedBarSeries11qt_metacastEPKc@Qt_5 5.7.1
 _ZN8QtCharts17QStackedBarSeries16staticMetaObjectE@Qt_5 5.7.1
 _ZN8QtCharts17QStackedBarSeriesC1EP7QObject@Qt_5 5.7.1
 _ZN8QtCharts17QStackedBarSeriesC2EP7QObject@Qt_5 5.7.1
 _ZN8QtCharts17QStackedBarSeriesD0Ev@Qt_5 5.7.1
 _ZN8QtCharts17QStackedBarSeriesD1Ev@Qt_5 5.7.1
 _ZN8QtCharts17QStackedBarSeriesD2Ev@Qt_5 5.7.1
 _ZN8QtCharts18QAbstractBarSeries11qt_metacallEN11QMetaObject4CallEiPPv@Qt_5 5.7.1
 _ZN8QtCharts18QAbstractBarSeries11qt_metacastEPKc@Qt_5 5.7.1
 _ZN8QtCharts18QAbstractBarSeries11setBarWidthEd@Qt_5 5.7.1
 _ZN8QtCharts18QAbstractBarSeries12barsetsAddedE5QListIPNS_7QBarSetEE@Qt_5 5.7.1
 _ZN8QtCharts18QAbstractBarSeries12countChangedEv@Qt_5 5.7.1
 _ZN8QtCharts18QAbstractBarSeries13doubleClickedEiPNS_7QBarSetE@Qt_5 5.7.1
 _ZN8QtCharts18QAbstractBarSeries14barsetsRemovedE5QListIPNS_7QBarSetEE@Qt_5 5.7.1
 _ZN8QtCharts18QAbstractBarSeries14setLabelsAngleEd@Qt_5 5.7.1
 _ZN8QtCharts18QAbstractBarSeries15setLabelsFormatERK7QString@Qt_5 5.7.1
 _ZN8QtCharts18QAbstractBarSeries16setLabelsVisibleEb@Qt_5 5.7.1
 _ZN8QtCharts18QAbstractBarSeries16staticMetaObjectE@Qt_5 5.7.1
 _ZN8QtCharts18QAbstractBarSeries17setLabelsPositionENS0_14LabelsPositionE@Qt_5 5.7.1
 _ZN8QtCharts18QAbstractBarSeries18labelsAngleChangedEd@Qt_5 5.7.1
 _ZN8QtCharts18QAbstractBarSeries19labelsFormatChangedERK7QString@Qt_5 5.7.1
 _ZN8QtCharts18QAbstractBarSeries20labelsVisibleChangedEv@Qt_5 5.7.1
 _ZN8QtCharts18QAbstractBarSeries21labelsPositionChangedENS0_14LabelsPositionE@Qt_5 5.7.1
 _ZN8QtCharts18QAbstractBarSeries4takeEPNS_7QBarSetE@Qt_5 5.7.1
 _ZN8QtCharts18QAbstractBarSeries5clearEv@Qt_5 5.7.1
 _ZN8QtCharts18QAbstractBarSeries6appendE5QListIPNS_7QBarSetEE@Qt_5 5.7.1
 _ZN8QtCharts18QAbstractBarSeries6appendEPNS_7QBarSetE@Qt_5 5.7.1
 _ZN8QtCharts18QAbstractBarSeries6insertEiPNS_7QBarSetE@Qt_5 5.7.1
 _ZN8QtCharts18QAbstractBarSeries6removeEPNS_7QBarSetE@Qt_5 5.7.1
 _ZN8QtCharts18QAbstractBarSeries7clickedEiPNS_7QBarSetE@Qt_5 5.7.1
 _ZN8QtCharts18QAbstractBarSeries7hoveredEbiPNS_7QBarSetE@Qt_5 5.7.1
 _ZN8QtCharts18QAbstractBarSeries7pressedEiPNS_7QBarSetE@Qt_5 5.7.1
 _ZN8QtCharts18QAbstractBarSeries8releasedEiPNS_7QBarSetE@Qt_5 5.7.1
 _ZN8QtCharts18QAbstractBarSeriesC1ERNS_25QAbstractBarSeriesPrivateEP7QObject@Qt_5 5.7.1
 _ZN8QtCharts18QAbstractBarSeriesC2ERNS_25QAbstractBarSeriesPrivateEP7QObject@Qt_5 5.7.1
 _ZN8QtCharts18QAbstractBarSeriesD0Ev@Qt_5 5.7.1
 _ZN8QtCharts18QAbstractBarSeriesD1Ev@Qt_5 5.7.1
 _ZN8QtCharts18QAbstractBarSeriesD2Ev@Qt_5 5.7.1
 _ZN8QtCharts18QCandlestickSeries10penChangedEv@Qt_5 5.9.0~rc
 _ZN8QtCharts18QCandlestickSeries11qt_metacallEN11QMetaObject4CallEiPPv@Qt_5 5.9.0~rc
 _ZN8QtCharts18QCandlestickSeries11qt_metacastEPKc@Qt_5 5.9.0~rc
 _ZN8QtCharts18QCandlestickSeries12brushChangedEv@Qt_5 5.9.0~rc
 _ZN8QtCharts18QCandlestickSeries12countChangedEv@Qt_5 5.9.0~rc
 _ZN8QtCharts18QCandlestickSeries12setBodyWidthEd@Qt_5 5.9.0~rc
 _ZN8QtCharts18QCandlestickSeries12setCapsWidthEd@Qt_5 5.9.0~rc
 _ZN8QtCharts18QCandlestickSeries13doubleClickedEPNS_15QCandlestickSetE@Qt_5 5.9.0~rc
 _ZN8QtCharts18QCandlestickSeries14setCapsVisibleEb@Qt_5 5.9.0~rc
 _ZN8QtCharts18QCandlestickSeries16bodyWidthChangedEv@Qt_5 5.9.0~rc
 _ZN8QtCharts18QCandlestickSeries16capsWidthChangedEv@Qt_5 5.9.0~rc
 _ZN8QtCharts18QCandlestickSeries16staticMetaObjectE@Qt_5 5.9.0~rc
 _ZN8QtCharts18QCandlestickSeries18setDecreasingColorERK6QColor@Qt_5 5.9.0~rc
 _ZN8QtCharts18QCandlestickSeries18setIncreasingColorERK6QColor@Qt_5 5.9.0~rc
 _ZN8QtCharts18QCandlestickSeries20candlestickSetsAddedERK5QListIPNS_15QCandlestickSetEE@Qt_5 5.9.0~rc
 _ZN8QtCharts18QCandlestickSeries21capsVisibilityChangedEv@Qt_5 5.9.0~rc
 _ZN8QtCharts18QCandlestickSeries21setBodyOutlineVisibleEb@Qt_5 5.9.0~rc
 _ZN8QtCharts18QCandlestickSeries21setMaximumColumnWidthEd@Qt_5 5.9.0~rc
 _ZN8QtCharts18QCandlestickSeries21setMinimumColumnWidthEd@Qt_5 5.9.0~rc
 _ZN8QtCharts18QCandlestickSeries22candlestickSetsRemovedERK5QListIPNS_15QCandlestickSetEE@Qt_5 5.9.0~rc
 _ZN8QtCharts18QCandlestickSeries22decreasingColorChangedEv@Qt_5 5.9.0~rc
 _ZN8QtCharts18QCandlestickSeries22increasingColorChangedEv@Qt_5 5.9.0~rc
 _ZN8QtCharts18QCandlestickSeries25maximumColumnWidthChangedEv@Qt_5 5.9.0~rc
 _ZN8QtCharts18QCandlestickSeries25minimumColumnWidthChangedEv@Qt_5 5.9.0~rc
 _ZN8QtCharts18QCandlestickSeries28bodyOutlineVisibilityChangedEv@Qt_5 5.9.0~rc
 _ZN8QtCharts18QCandlestickSeries4takeEPNS_15QCandlestickSetE@Qt_5 5.9.0~rc
 _ZN8QtCharts18QCandlestickSeries5clearEv@Qt_5 5.9.0~rc
 _ZN8QtCharts18QCandlestickSeries6appendEPNS_15QCandlestickSetE@Qt_5 5.9.0~rc
 _ZN8QtCharts18QCandlestickSeries6appendERK5QListIPNS_15QCandlestickSetEE@Qt_5 5.9.0~rc
 _ZN8QtCharts18QCandlestickSeries6insertEiPNS_15QCandlestickSetE@Qt_5 5.9.0~rc
 _ZN8QtCharts18QCandlestickSeries6removeEPNS_15QCandlestickSetE@Qt_5 5.9.0~rc
 _ZN8QtCharts18QCandlestickSeries6removeERK5QListIPNS_15QCandlestickSetEE@Qt_5 5.9.0~rc
 _ZN8QtCharts18QCandlestickSeries6setPenERK4QPen@Qt_5 5.9.0~rc
 _ZN8QtCharts18QCandlestickSeries7clickedEPNS_15QCandlestickSetE@Qt_5 5.9.0~rc
 _ZN8QtCharts18QCandlestickSeries7hoveredEbPNS_15QCandlestickSetE@Qt_5 5.9.0~rc
 _ZN8QtCharts18QCandlestickSeries7pressedEPNS_15QCandlestickSetE@Qt_5 5.9.0~rc
 _ZN8QtCharts18QCandlestickSeries8releasedEPNS_15QCandlestickSetE@Qt_5 5.9.0~rc
 _ZN8QtCharts18QCandlestickSeries8setBrushERK6QBrush@Qt_5 5.9.0~rc
 _ZN8QtCharts18QCandlestickSeriesC1EP7QObject@Qt_5 5.9.0~rc
 _ZN8QtCharts18QCandlestickSeriesC2EP7QObject@Qt_5 5.9.0~rc
 _ZN8QtCharts18QCandlestickSeriesD0Ev@Qt_5 5.9.0~rc
 _ZN8QtCharts18QCandlestickSeriesD1Ev@Qt_5 5.9.0~rc
 _ZN8QtCharts18QCandlestickSeriesD2Ev@Qt_5 5.9.0~rc
 _ZN8QtCharts19QBoxPlotModelMapper11qt_metacallEN11QMetaObject4CallEiPPv@Qt_5 5.7.1
 _ZN8QtCharts19QBoxPlotModelMapper11qt_metacastEPKc@Qt_5 5.7.1
 _ZN8QtCharts19QBoxPlotModelMapper14setOrientationEN2Qt11OrientationE@Qt_5 5.7.1
 _ZN8QtCharts19QBoxPlotModelMapper16staticMetaObjectE@Qt_5 5.7.1
 _ZN8QtCharts19QBoxPlotModelMapper20setLastBoxSetSectionEi@Qt_5 5.7.1
 _ZN8QtCharts19QBoxPlotModelMapper21setFirstBoxSetSectionEi@Qt_5 5.7.1
 _ZN8QtCharts19QBoxPlotModelMapper8setCountEi@Qt_5 5.7.1
 _ZN8QtCharts19QBoxPlotModelMapper8setFirstEi@Qt_5 5.7.1
 _ZN8QtCharts19QBoxPlotModelMapper8setModelEP18QAbstractItemModel@Qt_5 5.7.1
 _ZN8QtCharts19QBoxPlotModelMapper9setSeriesEPNS_14QBoxPlotSeriesE@Qt_5 5.7.1
 _ZN8QtCharts19QBoxPlotModelMapperC1EP7QObject@Qt_5 5.7.1
 _ZN8QtCharts19QBoxPlotModelMapperC2EP7QObject@Qt_5 5.7.1
 _ZN8QtCharts20QBoxPlotLegendMarker11qt_metacallEN11QMetaObject4CallEiPPv@Qt_5 5.7.1
 _ZN8QtCharts20QBoxPlotLegendMarker11qt_metacastEPKc@Qt_5 5.7.1
 _ZN8QtCharts20QBoxPlotLegendMarker16staticMetaObjectE@Qt_5 5.7.1
 _ZN8QtCharts20QBoxPlotLegendMarker6seriesEv@Qt_5 5.7.1
 _ZN8QtCharts20QBoxPlotLegendMarkerC1EPNS_14QBoxPlotSeriesEPNS_7QLegendEP7QObject@Qt_5 5.7.1
 _ZN8QtCharts20QBoxPlotLegendMarkerC1ERNS_27QBoxPlotLegendMarkerPrivateEP7QObject@Qt_5 5.7.1
 _ZN8QtCharts20QBoxPlotLegendMarkerC2EPNS_14QBoxPlotSeriesEPNS_7QLegendEP7QObject@Qt_5 5.7.1
 _ZN8QtCharts20QBoxPlotLegendMarkerC2ERNS_27QBoxPlotLegendMarkerPrivateEP7QObject@Qt_5 5.7.1
 _ZN8QtCharts20QBoxPlotLegendMarkerD0Ev@Qt_5 5.7.1
 _ZN8QtCharts20QBoxPlotLegendMarkerD1Ev@Qt_5 5.7.1
 _ZN8QtCharts20QBoxPlotLegendMarkerD2Ev@Qt_5 5.7.1
 _ZN8QtCharts20QHBoxPlotModelMapper11qt_metacallEN11QMetaObject4CallEiPPv@Qt_5 5.9.0~rc
 _ZN8QtCharts20QHBoxPlotModelMapper11qt_metacastEPKc@Qt_5 5.9.0~rc
 _ZN8QtCharts20QHBoxPlotModelMapper13modelReplacedEv@Qt_5 5.9.0~rc
 _ZN8QtCharts20QHBoxPlotModelMapper14seriesReplacedEv@Qt_5 5.9.0~rc
 _ZN8QtCharts20QHBoxPlotModelMapper14setColumnCountEi@Qt_5 5.9.0~rc
 _ZN8QtCharts20QHBoxPlotModelMapper14setFirstColumnEi@Qt_5 5.9.0~rc
 _ZN8QtCharts20QHBoxPlotModelMapper16setLastBoxSetRowEi@Qt_5 5.9.0~rc
 _ZN8QtCharts20QHBoxPlotModelMapper16staticMetaObjectE@Qt_5 5.9.0~rc
 _ZN8QtCharts20QHBoxPlotModelMapper17setFirstBoxSetRowEi@Qt_5 5.9.0~rc
 _ZN8QtCharts20QHBoxPlotModelMapper18columnCountChangedEv@Qt_5 5.9.0~rc
 _ZN8QtCharts20QHBoxPlotModelMapper18firstColumnChangedEv@Qt_5 5.9.0~rc
 _ZN8QtCharts20QHBoxPlotModelMapper20lastBoxSetRowChangedEv@Qt_5 5.9.0~rc
 _ZN8QtCharts20QHBoxPlotModelMapper21firstBoxSetRowChangedEv@Qt_5 5.9.0~rc
 _ZN8QtCharts20QHBoxPlotModelMapper8setModelEP18QAbstractItemModel@Qt_5 5.9.0~rc
 _ZN8QtCharts20QHBoxPlotModelMapper9setSeriesEPNS_14QBoxPlotSeriesE@Qt_5 5.9.0~rc
 _ZN8QtCharts20QHBoxPlotModelMapperC1EP7QObject@Qt_5 5.9.0~rc
 _ZN8QtCharts20QHBoxPlotModelMapperC2EP7QObject@Qt_5 5.9.0~rc
 _ZN8QtCharts20QHorizontalBarSeries11qt_metacallEN11QMetaObject4CallEiPPv@Qt_5 5.7.1
 _ZN8QtCharts20QHorizontalBarSeries11qt_metacastEPKc@Qt_5 5.7.1
 _ZN8QtCharts20QHorizontalBarSeries16staticMetaObjectE@Qt_5 5.7.1
 _ZN8QtCharts20QHorizontalBarSeriesC1EP7QObject@Qt_5 5.7.1
 _ZN8QtCharts20QHorizontalBarSeriesC2EP7QObject@Qt_5 5.7.1
 _ZN8QtCharts20QHorizontalBarSeriesD0Ev@Qt_5 5.7.1
 _ZN8QtCharts20QHorizontalBarSeriesD1Ev@Qt_5 5.7.1
 _ZN8QtCharts20QHorizontalBarSeriesD2Ev@Qt_5 5.7.1
 _ZN8QtCharts20QVBoxPlotModelMapper11qt_metacallEN11QMetaObject4CallEiPPv@Qt_5 5.7.1
 _ZN8QtCharts20QVBoxPlotModelMapper11qt_metacastEPKc@Qt_5 5.7.1
 _ZN8QtCharts20QVBoxPlotModelMapper11setFirstRowEi@Qt_5 5.7.1
 _ZN8QtCharts20QVBoxPlotModelMapper11setRowCountEi@Qt_5 5.7.1
 _ZN8QtCharts20QVBoxPlotModelMapper13modelReplacedEv@Qt_5 5.7.1
 _ZN8QtCharts20QVBoxPlotModelMapper14seriesReplacedEv@Qt_5 5.7.1
 _ZN8QtCharts20QVBoxPlotModelMapper15firstRowChangedEv@Qt_5 5.7.1
 _ZN8QtCharts20QVBoxPlotModelMapper15rowCountChangedEv@Qt_5 5.7.1
 _ZN8QtCharts20QVBoxPlotModelMapper16staticMetaObjectE@Qt_5 5.7.1
 _ZN8QtCharts20QVBoxPlotModelMapper19setLastBoxSetColumnEi@Qt_5 5.7.1
 _ZN8QtCharts20QVBoxPlotModelMapper20setFirstBoxSetColumnEi@Qt_5 5.7.1
 _ZN8QtCharts20QVBoxPlotModelMapper23lastBoxSetColumnChangedEv@Qt_5 5.7.1
 _ZN8QtCharts20QVBoxPlotModelMapper24firstBoxSetColumnChangedEv@Qt_5 5.7.1
 _ZN8QtCharts20QVBoxPlotModelMapper8setModelEP18QAbstractItemModel@Qt_5 5.7.1
 _ZN8QtCharts20QVBoxPlotModelMapper9setSeriesEPNS_14QBoxPlotSeriesE@Qt_5 5.7.1
 _ZN8QtCharts20QVBoxPlotModelMapperC1EP7QObject@Qt_5 5.7.1
 _ZN8QtCharts20QVBoxPlotModelMapperC2EP7QObject@Qt_5 5.7.1
 _ZN8QtCharts23QCandlestickModelMapper11qt_metacallEN11QMetaObject4CallEiPPv@Qt_5 5.9.0~rc
 _ZN8QtCharts23QCandlestickModelMapper11qt_metacastEPKc@Qt_5 5.9.0~rc
 _ZN8QtCharts23QCandlestickModelMapper12setTimestampEi@Qt_5 5.9.0~rc
 _ZN8QtCharts23QCandlestickModelMapper13modelReplacedEv@Qt_5 5.9.0~rc
 _ZN8QtCharts23QCandlestickModelMapper14seriesReplacedEv@Qt_5 5.9.0~rc
 _ZN8QtCharts23QCandlestickModelMapper16staticMetaObjectE@Qt_5 5.9.0~rc
 _ZN8QtCharts23QCandlestickModelMapper17setLastSetSectionEi@Qt_5 5.9.0~rc
 _ZN8QtCharts23QCandlestickModelMapper18setFirstSetSectionEi@Qt_5 5.9.0~rc
 _ZN8QtCharts23QCandlestickModelMapper6setLowEi@Qt_5 5.9.0~rc
 _ZN8QtCharts23QCandlestickModelMapper7setHighEi@Qt_5 5.9.0~rc
 _ZN8QtCharts23QCandlestickModelMapper7setOpenEi@Qt_5 5.9.0~rc
 _ZN8QtCharts23QCandlestickModelMapper8setCloseEi@Qt_5 5.9.0~rc
 _ZN8QtCharts23QCandlestickModelMapper8setModelEP18QAbstractItemModel@Qt_5 5.9.0~rc
 _ZN8QtCharts23QCandlestickModelMapper9setSeriesEPNS_18QCandlestickSeriesE@Qt_5 5.9.0~rc
 _ZN8QtCharts23QCandlestickModelMapperC1EP7QObject@Qt_5 5.9.0~rc
 _ZN8QtCharts23QCandlestickModelMapperC2EP7QObject@Qt_5 5.9.0~rc
 _ZN8QtCharts24QCandlestickLegendMarker11qt_metacallEN11QMetaObject4CallEiPPv@Qt_5 5.9.0~rc
 _ZN8QtCharts24QCandlestickLegendMarker11qt_metacastEPKc@Qt_5 5.9.0~rc
 _ZN8QtCharts24QCandlestickLegendMarker16staticMetaObjectE@Qt_5 5.9.0~rc
 _ZN8QtCharts24QCandlestickLegendMarker4typeEv@Qt_5 5.9.0~rc
 _ZN8QtCharts24QCandlestickLegendMarker6seriesEv@Qt_5 5.9.0~rc
 _ZN8QtCharts24QCandlestickLegendMarkerC1EPNS_18QCandlestickSeriesEPNS_7QLegendEP7QObject@Qt_5 5.9.0~rc
 _ZN8QtCharts24QCandlestickLegendMarkerC2EPNS_18QCandlestickSeriesEPNS_7QLegendEP7QObject@Qt_5 5.9.0~rc
 _ZN8QtCharts24QCandlestickLegendMarkerD0Ev@Qt_5 5.9.0~rc
 _ZN8QtCharts24QCandlestickLegendMarkerD1Ev@Qt_5 5.9.0~rc
 _ZN8QtCharts24QCandlestickLegendMarkerD2Ev@Qt_5 5.9.0~rc
 _ZN8QtCharts24QHCandlestickModelMapper11qt_metacallEN11QMetaObject4CallEiPPv@Qt_5 5.9.0~rc
 _ZN8QtCharts24QHCandlestickModelMapper11qt_metacastEPKc@Qt_5 5.9.0~rc
 _ZN8QtCharts24QHCandlestickModelMapper12setLowColumnEi@Qt_5 5.9.0~rc
 _ZN8QtCharts24QHCandlestickModelMapper13setHighColumnEi@Qt_5 5.9.0~rc
 _ZN8QtCharts24QHCandlestickModelMapper13setLastSetRowEi@Qt_5 5.9.0~rc
 _ZN8QtCharts24QHCandlestickModelMapper13setOpenColumnEi@Qt_5 5.9.0~rc
 _ZN8QtCharts24QHCandlestickModelMapper14setCloseColumnEi@Qt_5 5.9.0~rc
 _ZN8QtCharts24QHCandlestickModelMapper14setFirstSetRowEi@Qt_5 5.9.0~rc
 _ZN8QtCharts24QHCandlestickModelMapper16lowColumnChangedEv@Qt_5 5.9.0~rc
 _ZN8QtCharts24QHCandlestickModelMapper16staticMetaObjectE@Qt_5 5.9.0~rc
 _ZN8QtCharts24QHCandlestickModelMapper17highColumnChangedEv@Qt_5 5.9.0~rc
 _ZN8QtCharts24QHCandlestickModelMapper17lastSetRowChangedEv@Qt_5 5.9.0~rc
 _ZN8QtCharts24QHCandlestickModelMapper17openColumnChangedEv@Qt_5 5.9.0~rc
 _ZN8QtCharts24QHCandlestickModelMapper18closeColumnChangedEv@Qt_5 5.9.0~rc
 _ZN8QtCharts24QHCandlestickModelMapper18firstSetRowChangedEv@Qt_5 5.9.0~rc
 _ZN8QtCharts24QHCandlestickModelMapper18setTimestampColumnEi@Qt_5 5.9.0~rc
 _ZN8QtCharts24QHCandlestickModelMapper22timestampColumnChangedEv@Qt_5 5.9.0~rc
 _ZN8QtCharts24QHCandlestickModelMapperC1EP7QObject@Qt_5 5.9.0~rc
 _ZN8QtCharts24QHCandlestickModelMapperC2EP7QObject@Qt_5 5.9.0~rc
 _ZN8QtCharts24QVCandlestickModelMapper10setHighRowEi@Qt_5 5.9.0~rc
 _ZN8QtCharts24QVCandlestickModelMapper10setOpenRowEi@Qt_5 5.9.0~rc
 _ZN8QtCharts24QVCandlestickModelMapper11qt_metacallEN11QMetaObject4CallEiPPv@Qt_5 5.9.0~rc
 _ZN8QtCharts24QVCandlestickModelMapper11qt_metacastEPKc@Qt_5 5.9.0~rc
 _ZN8QtCharts24QVCandlestickModelMapper11setCloseRowEi@Qt_5 5.9.0~rc
 _ZN8QtCharts24QVCandlestickModelMapper13lowRowChangedEv@Qt_5 5.9.0~rc
 _ZN8QtCharts24QVCandlestickModelMapper14highRowChangedEv@Qt_5 5.9.0~rc
 _ZN8QtCharts24QVCandlestickModelMapper14openRowChangedEv@Qt_5 5.9.0~rc
 _ZN8QtCharts24QVCandlestickModelMapper15closeRowChangedEv@Qt_5 5.9.0~rc
 _ZN8QtCharts24QVCandlestickModelMapper15setTimestampRowEi@Qt_5 5.9.0~rc
 _ZN8QtCharts24QVCandlestickModelMapper16setLastSetColumnEi@Qt_5 5.9.0~rc
 _ZN8QtCharts24QVCandlestickModelMapper16staticMetaObjectE@Qt_5 5.9.0~rc
 _ZN8QtCharts24QVCandlestickModelMapper17setFirstSetColumnEi@Qt_5 5.9.0~rc
 _ZN8QtCharts24QVCandlestickModelMapper19timestampRowChangedEv@Qt_5 5.9.0~rc
 _ZN8QtCharts24QVCandlestickModelMapper20lastSetColumnChangedEv@Qt_5 5.9.0~rc
 _ZN8QtCharts24QVCandlestickModelMapper21firstSetColumnChangedEv@Qt_5 5.9.0~rc
 _ZN8QtCharts24QVCandlestickModelMapper9setLowRowEi@Qt_5 5.9.0~rc
 _ZN8QtCharts24QVCandlestickModelMapperC1EP7QObject@Qt_5 5.9.0~rc
 _ZN8QtCharts24QVCandlestickModelMapperC2EP7QObject@Qt_5 5.9.0~rc
 _ZN8QtCharts27QHorizontalPercentBarSeries11qt_metacallEN11QMetaObject4CallEiPPv@Qt_5 5.7.1
 _ZN8QtCharts27QHorizontalPercentBarSeries11qt_metacastEPKc@Qt_5 5.7.1
 _ZN8QtCharts27QHorizontalPercentBarSeries16staticMetaObjectE@Qt_5 5.7.1
 _ZN8QtCharts27QHorizontalPercentBarSeriesC1EP7QObject@Qt_5 5.7.1
 _ZN8QtCharts27QHorizontalPercentBarSeriesC2EP7QObject@Qt_5 5.7.1
 _ZN8QtCharts27QHorizontalPercentBarSeriesD0Ev@Qt_5 5.7.1
 _ZN8QtCharts27QHorizontalPercentBarSeriesD1Ev@Qt_5 5.7.1
 _ZN8QtCharts27QHorizontalPercentBarSeriesD2Ev@Qt_5 5.7.1
 _ZN8QtCharts27QHorizontalStackedBarSeries11qt_metacallEN11QMetaObject4CallEiPPv@Qt_5 5.7.1
 _ZN8QtCharts27QHorizontalStackedBarSeries11qt_metacastEPKc@Qt_5 5.7.1
 _ZN8QtCharts27QHorizontalStackedBarSeries16staticMetaObjectE@Qt_5 5.7.1
 _ZN8QtCharts27QHorizontalStackedBarSeriesC1EP7QObject@Qt_5 5.7.1
 _ZN8QtCharts27QHorizontalStackedBarSeriesC2EP7QObject@Qt_5 5.7.1
 _ZN8QtCharts27QHorizontalStackedBarSeriesD0Ev@Qt_5 5.7.1
 _ZN8QtCharts27QHorizontalStackedBarSeriesD1Ev@Qt_5 5.7.1
 _ZN8QtCharts27QHorizontalStackedBarSeriesD2Ev@Qt_5 5.7.1
 _ZN8QtCharts6QChart10mapToValueERK7QPointFPNS_15QAbstractSeriesE@Qt_5 5.7.1
 _ZN8QtCharts6QChart10removeAxisEPNS_13QAbstractAxisE@Qt_5 5.7.1
 _ZN8QtCharts6QChart10setMarginsERK8QMargins@Qt_5 5.7.1
 _ZN8QtCharts6QChart11qt_metacallEN11QMetaObject4CallEiPPv@Qt_5 5.7.1
 _ZN8QtCharts6QChart11qt_metacastEPKc@Qt_5 5.7.1
 _ZN8QtCharts6QChart12removeSeriesEPNS_15QAbstractSeriesE@Qt_5 5.7.1
 _ZN8QtCharts6QChart12setTitleFontERK5QFont@Qt_5 5.7.1
 _ZN8QtCharts6QChart13mapToPositionERK7QPointFPNS_15QAbstractSeriesE@Qt_5 5.7.1
 _ZN8QtCharts6QChart13setTitleBrushERK6QBrush@Qt_5 5.7.1
 _ZN8QtCharts6QChart15plotAreaChangedERK6QRectF@Qt_5 5.7.1
 _ZN8QtCharts6QChart15removeAllSeriesEv@Qt_5 5.7.1
 _ZN8QtCharts6QChart16setBackgroundPenERK4QPen@Qt_5 5.7.1
 _ZN8QtCharts6QChart16staticMetaObjectE@Qt_5 5.7.1
 _ZN8QtCharts6QChart17createDefaultAxesEv@Qt_5 5.7.1
 _ZN8QtCharts6QChart18setBackgroundBrushERK6QBrush@Qt_5 5.7.1
 _ZN8QtCharts6QChart18setLocalizeNumbersEb@Qt_5 5.7.1
 _ZN8QtCharts6QChart19setAnimationOptionsE6QFlagsINS0_15AnimationOptionEE@Qt_5 5.7.1
 _ZN8QtCharts6QChart20setAnimationDurationEi@Qt_5 5.7.1
 _ZN8QtCharts6QChart20setBackgroundVisibleEb@Qt_5 5.7.1
 _ZN8QtCharts6QChart20setDropShadowEnabledEb@Qt_5 5.7.1
 _ZN8QtCharts6QChart22setBackgroundRoundnessEd@Qt_5 5.7.1
 _ZN8QtCharts6QChart23setAnimationEasingCurveERK12QEasingCurve@Qt_5 5.7.1
 _ZN8QtCharts6QChart24setPlotAreaBackgroundPenERK4QPen@Qt_5 5.7.1
 _ZN8QtCharts6QChart26setPlotAreaBackgroundBrushERK6QBrush@Qt_5 5.7.1
 _ZN8QtCharts6QChart28setPlotAreaBackgroundVisibleEb@Qt_5 5.7.1
 _ZN8QtCharts6QChart4zoomEd@Qt_5 5.7.1
 _ZN8QtCharts6QChart6scrollEdd@Qt_5 5.7.1
 _ZN8QtCharts6QChart6zoomInERK6QRectF@Qt_5 5.7.1
 _ZN8QtCharts6QChart6zoomInEv@Qt_5 5.7.1
 _ZN8QtCharts6QChart7addAxisEPNS_13QAbstractAxisE6QFlagsIN2Qt13AlignmentFlagEE@Qt_5 5.7.1
 _ZN8QtCharts6QChart7zoomOutEv@Qt_5 5.7.1
 _ZN8QtCharts6QChart8isZoomedEv@Qt_5 5.7.1
 _ZN8QtCharts6QChart8setAxisXEPNS_13QAbstractAxisEPNS_15QAbstractSeriesE@Qt_5 5.7.1
 _ZN8QtCharts6QChart8setAxisYEPNS_13QAbstractAxisEPNS_15QAbstractSeriesE@Qt_5 5.7.1
 _ZN8QtCharts6QChart8setThemeENS0_10ChartThemeE@Qt_5 5.7.1
 _ZN8QtCharts6QChart8setTitleERK7QString@Qt_5 5.7.1
 _ZN8QtCharts6QChart9addSeriesEPNS_15QAbstractSeriesE@Qt_5 5.7.1
 _ZN8QtCharts6QChart9setLocaleERK7QLocale@Qt_5 5.7.1
 _ZN8QtCharts6QChart9zoomResetEv@Qt_5 5.7.1
 _ZN8QtCharts6QChartC1ENS0_9ChartTypeEP13QGraphicsItem6QFlagsIN2Qt10WindowTypeEE@Qt_5 5.7.1
 _ZN8QtCharts6QChartC1EP13QGraphicsItem6QFlagsIN2Qt10WindowTypeEE@Qt_5 5.7.1
 _ZN8QtCharts6QChartC2ENS0_9ChartTypeEP13QGraphicsItem6QFlagsIN2Qt10WindowTypeEE@Qt_5 5.7.1
 _ZN8QtCharts6QChartC2EP13QGraphicsItem6QFlagsIN2Qt10WindowTypeEE@Qt_5 5.7.1
 _ZN8QtCharts6QChartD0Ev@Qt_5 5.7.1
 _ZN8QtCharts6QChartD1Ev@Qt_5 5.7.1
 _ZN8QtCharts6QChartD2Ev@Qt_5 5.7.1
 _ZN8QtCharts7QBarSet10labelColorEv@Qt_5 5.7.1
 _ZN8QtCharts7QBarSet10penChangedEv@Qt_5 5.7.1
 _ZN8QtCharts7QBarSet11borderColorEv@Qt_5 5.7.1
 _ZN8QtCharts7QBarSet11qt_metacallEN11QMetaObject4CallEiPPv@Qt_5 5.7.1
 _ZN8QtCharts7QBarSet11qt_metacastEPKc@Qt_5 5.7.1
 _ZN8QtCharts7QBarSet11valuesAddedEii@Qt_5 5.7.1
 _ZN8QtCharts7QBarSet12brushChangedEv@Qt_5 5.7.1
 _ZN8QtCharts7QBarSet12colorChangedE6QColor@Qt_5 5.7.1
 _ZN8QtCharts7QBarSet12labelChangedEv@Qt_5 5.7.1
 _ZN8QtCharts7QBarSet12setLabelFontERK5QFont@Qt_5 5.7.1
 _ZN8QtCharts7QBarSet12valueChangedEi@Qt_5 5.7.1
 _ZN8QtCharts7QBarSet13doubleClickedEi@Qt_5 5.7.1
 _ZN8QtCharts7QBarSet13setLabelBrushERK6QBrush@Qt_5 5.7.1
 _ZN8QtCharts7QBarSet13setLabelColorE6QColor@Qt_5 5.7.1
 _ZN8QtCharts7QBarSet13valuesRemovedEii@Qt_5 5.7.1
 _ZN8QtCharts7QBarSet14setBorderColorE6QColor@Qt_5 5.7.1
 _ZN8QtCharts7QBarSet16labelFontChangedEv@Qt_5 5.7.1
 _ZN8QtCharts7QBarSet16staticMetaObjectE@Qt_5 5.7.1
 _ZN8QtCharts7QBarSet17labelBrushChangedEv@Qt_5 5.7.1
 _ZN8QtCharts7QBarSet17labelColorChangedE6QColor@Qt_5 5.7.1
 _ZN8QtCharts7QBarSet18borderColorChangedE6QColor@Qt_5 5.7.1
 _ZN8QtCharts7QBarSet5colorEv@Qt_5 5.7.1
 _ZN8QtCharts7QBarSet6appendERK5QListIdE@Qt_5 5.7.1
 _ZN8QtCharts7QBarSet6appendEd@Qt_5 5.7.1
 _ZN8QtCharts7QBarSet6insertEid@Qt_5 5.7.1
 _ZN8QtCharts7QBarSet6removeEii@Qt_5 5.7.1
 _ZN8QtCharts7QBarSet6setPenERK4QPen@Qt_5 5.7.1
 _ZN8QtCharts7QBarSet7clickedEi@Qt_5 5.7.1
 _ZN8QtCharts7QBarSet7hoveredEbi@Qt_5 5.7.1
 _ZN8QtCharts7QBarSet7pressedEi@Qt_5 5.7.1
 _ZN8QtCharts7QBarSet7replaceEid@Qt_5 5.7.1
 _ZN8QtCharts7QBarSet8releasedEi@Qt_5 5.7.1
 _ZN8QtCharts7QBarSet8setBrushERK6QBrush@Qt_5 5.7.1
 _ZN8QtCharts7QBarSet8setColorE6QColor@Qt_5 5.7.1
 _ZN8QtCharts7QBarSet8setLabelE7QString@Qt_5 5.7.1
 _ZN8QtCharts7QBarSetC1E7QStringP7QObject@Qt_5 5.7.1
 _ZN8QtCharts7QBarSetC2E7QStringP7QObject@Qt_5 5.7.1
 _ZN8QtCharts7QBarSetD0Ev@Qt_5 5.7.1
 _ZN8QtCharts7QBarSetD1Ev@Qt_5 5.7.1
 _ZN8QtCharts7QBarSetD2Ev@Qt_5 5.7.1
 _ZN8QtCharts7QBarSetlsERKd@Qt_5 5.7.1
 _ZN8QtCharts7QBoxSet10penChangedEv@Qt_5 5.7.1
 _ZN8QtCharts7QBoxSet11qt_metacallEN11QMetaObject4CallEiPPv@Qt_5 5.7.1
 _ZN8QtCharts7QBoxSet11qt_metacastEPKc@Qt_5 5.7.1
 _ZN8QtCharts7QBoxSet12brushChangedEv@Qt_5 5.7.1
 _ZN8QtCharts7QBoxSet12valueChangedEi@Qt_5 5.7.1
 _ZN8QtCharts7QBoxSet13doubleClickedEv@Qt_5 5.7.1
 _ZN8QtCharts7QBoxSet13valuesChangedEv@Qt_5 5.7.1
 _ZN8QtCharts7QBoxSet16staticMetaObjectE@Qt_5 5.7.1
 _ZN8QtCharts7QBoxSet5clearEv@Qt_5 5.7.1
 _ZN8QtCharts7QBoxSet6appendERK5QListIdE@Qt_5 5.7.1
 _ZN8QtCharts7QBoxSet6appendEd@Qt_5 5.7.1
 _ZN8QtCharts7QBoxSet6setPenERK4QPen@Qt_5 5.7.1
 _ZN8QtCharts7QBoxSet7clearedEv@Qt_5 5.7.1
 _ZN8QtCharts7QBoxSet7clickedEv@Qt_5 5.7.1
 _ZN8QtCharts7QBoxSet7hoveredEb@Qt_5 5.7.1
 _ZN8QtCharts7QBoxSet7pressedEv@Qt_5 5.7.1
 _ZN8QtCharts7QBoxSet8releasedEv@Qt_5 5.7.1
 _ZN8QtCharts7QBoxSet8setBrushERK6QBrush@Qt_5 5.7.1
 _ZN8QtCharts7QBoxSet8setLabelE7QString@Qt_5 5.7.1
 _ZN8QtCharts7QBoxSet8setValueEid@Qt_5 5.7.1
 _ZN8QtCharts7QBoxSetC1E7QStringP7QObject@Qt_5 5.7.1
 _ZN8QtCharts7QBoxSetC1Eddddd7QStringP7QObject@Qt_5 5.7.1
 _ZN8QtCharts7QBoxSetC2E7QStringP7QObject@Qt_5 5.7.1
 _ZN8QtCharts7QBoxSetC2Eddddd7QStringP7QObject@Qt_5 5.7.1
 _ZN8QtCharts7QBoxSetD0Ev@Qt_5 5.7.1
 _ZN8QtCharts7QBoxSetD1Ev@Qt_5 5.7.1
 _ZN8QtCharts7QBoxSetD2Ev@Qt_5 5.7.1
 _ZN8QtCharts7QBoxSetlsERKd@Qt_5 5.7.1
 _ZN8QtCharts7QLegend11borderColorEv@Qt_5 5.7.1
 _ZN8QtCharts7QLegend11fontChangedE5QFont@Qt_5 5.7.1
 _ZN8QtCharts7QLegend11qt_metacallEN11QMetaObject4CallEiPPv@Qt_5 5.7.1
 _ZN8QtCharts7QLegend11qt_metacastEPKc@Qt_5 5.7.1
 _ZN8QtCharts7QLegend12colorChangedE6QColor@Qt_5 5.7.1
 _ZN8QtCharts7QLegend12setAlignmentE6QFlagsIN2Qt13AlignmentFlagEE@Qt_5 5.7.1
 _ZN8QtCharts7QLegend13attachToChartEv@Qt_5 5.7.1
 _ZN8QtCharts7QLegend13setLabelBrushERK6QBrush@Qt_5 5.7.1
 _ZN8QtCharts7QLegend13setLabelColorE6QColor@Qt_5 5.7.1
 _ZN8QtCharts7QLegend14reverseMarkersEv@Qt_5 5.7.1
 _ZN8QtCharts7QLegend14setBorderColorE6QColor@Qt_5 5.7.1
 _ZN8QtCharts7QLegend14setMarkerShapeENS0_11MarkerShapeE@Qt_5 5.9.0~rc
 _ZN8QtCharts7QLegend15detachFromChartEv@Qt_5 5.7.1
 _ZN8QtCharts7QLegend15setShowToolTipsEb@Qt_5 5.7.1
 _ZN8QtCharts7QLegend16staticMetaObjectE@Qt_5 5.7.1
 _ZN8QtCharts7QLegend17isAttachedToChartEv@Qt_5 5.7.1
 _ZN8QtCharts7QLegend17labelColorChangedE6QColor@Qt_5 5.7.1
 _ZN8QtCharts7QLegend17setReverseMarkersEb@Qt_5 5.7.1
 _ZN8QtCharts7QLegend18borderColorChangedE6QColor@Qt_5 5.7.1
 _ZN8QtCharts7QLegend18markerShapeChangedENS0_11MarkerShapeE@Qt_5 5.9.0~rc
 _ZN8QtCharts7QLegend19showToolTipsChangedEb@Qt_5 5.7.1
 _ZN8QtCharts7QLegend20setBackgroundVisibleEb@Qt_5 5.7.1
 _ZN8QtCharts7QLegend21reverseMarkersChangedEb@Qt_5 5.7.1
 _ZN8QtCharts7QLegend24backgroundVisibleChangedEb@Qt_5 5.7.1
 _ZN8QtCharts7QLegend5colorEv@Qt_5 5.7.1
 _ZN8QtCharts7QLegend5paintEP8QPainterPK24QStyleOptionGraphicsItemP7QWidget@Qt_5 5.7.1
 _ZN8QtCharts7QLegend6setPenERK4QPen@Qt_5 5.7.1
 _ZN8QtCharts7QLegend7setFontERK5QFont@Qt_5 5.7.1
 _ZN8QtCharts7QLegend8setBrushERK6QBrush@Qt_5 5.7.1
 _ZN8QtCharts7QLegend8setColorE6QColor@Qt_5 5.7.1
 _ZN8QtCharts7QLegend9hideEventEP10QHideEvent@Qt_5 5.7.1
 _ZN8QtCharts7QLegend9showEventEP10QShowEvent@Qt_5 5.7.1
 _ZN8QtCharts7QLegendC1EPNS_6QChartE@Qt_5 5.7.1
 _ZN8QtCharts7QLegendC2EPNS_6QChartE@Qt_5 5.7.1
 _ZN8QtCharts7QLegendD0Ev@Qt_5 5.7.1
 _ZN8QtCharts7QLegendD1Ev@Qt_5 5.7.1
 _ZN8QtCharts7QLegendD2Ev@Qt_5 5.7.1
 _ZN8QtCharts9QPieSlice10labelColorEv@Qt_5 5.7.1
 _ZN8QtCharts9QPieSlice10penChangedEv@Qt_5 5.7.1
 _ZN8QtCharts9QPieSlice11borderColorEv@Qt_5 5.7.1
 _ZN8QtCharts9QPieSlice11borderWidthEv@Qt_5 5.7.1
 _ZN8QtCharts9QPieSlice11qt_metacallEN11QMetaObject4CallEiPPv@Qt_5 5.7.1
 _ZN8QtCharts9QPieSlice11qt_metacastEPKc@Qt_5 5.7.1
 _ZN8QtCharts9QPieSlice11setExplodedEb@Qt_5 5.7.1
 _ZN8QtCharts9QPieSlice12brushChangedEv@Qt_5 5.7.1
 _ZN8QtCharts9QPieSlice12colorChangedEv@Qt_5 5.7.1
 _ZN8QtCharts9QPieSlice12labelChangedEv@Qt_5 5.7.1
 _ZN8QtCharts9QPieSlice12setLabelFontERK5QFont@Qt_5 5.7.1
 _ZN8QtCharts9QPieSlice12valueChangedEv@Qt_5 5.7.1
 _ZN8QtCharts9QPieSlice13doubleClickedEv@Qt_5 5.7.1
 _ZN8QtCharts9QPieSlice13labelPositionEv@Qt_5 5.7.1
 _ZN8QtCharts9QPieSlice13setLabelBrushERK6QBrush@Qt_5 5.7.1
 _ZN8QtCharts9QPieSlice13setLabelColorE6QColor@Qt_5 5.7.1
 _ZN8QtCharts9QPieSlice14setBorderColorE6QColor@Qt_5 5.7.1
 _ZN8QtCharts9QPieSlice14setBorderWidthEi@Qt_5 5.7.1
 _ZN8QtCharts9QPieSlice15setLabelVisibleEb@Qt_5 5.7.1
 _ZN8QtCharts9QPieSlice16angleSpanChangedEv@Qt_5 5.7.1
 _ZN8QtCharts9QPieSlice16labelFontChangedEv@Qt_5 5.7.1
 _ZN8QtCharts9QPieSlice16setLabelPositionENS0_13LabelPositionE@Qt_5 5.7.1
 _ZN8QtCharts9QPieSlice16staticMetaObjectE@Qt_5 5.7.1
 _ZN8QtCharts9QPieSlice17labelBrushChangedEv@Qt_5 5.7.1
 _ZN8QtCharts9QPieSlice17labelColorChangedEv@Qt_5 5.7.1
 _ZN8QtCharts9QPieSlice17percentageChangedEv@Qt_5 5.7.1
 _ZN8QtCharts9QPieSlice17startAngleChangedEv@Qt_5 5.7.1
 _ZN8QtCharts9QPieSlice18borderColorChangedEv@Qt_5 5.7.1
 _ZN8QtCharts9QPieSlice18borderWidthChangedEv@Qt_5 5.7.1
 _ZN8QtCharts9QPieSlice19labelVisibleChangedEv@Qt_5 5.7.1
 _ZN8QtCharts9QPieSlice23setLabelArmLengthFactorEd@Qt_5 5.7.1
 _ZN8QtCharts9QPieSlice24setExplodeDistanceFactorEd@Qt_5 5.7.1
 _ZN8QtCharts9QPieSlice5colorEv@Qt_5 5.7.1
 _ZN8QtCharts9QPieSlice6setPenERK4QPen@Qt_5 5.7.1
 _ZN8QtCharts9QPieSlice7clickedEv@Qt_5 5.7.1
 _ZN8QtCharts9QPieSlice7hoveredEb@Qt_5 5.7.1
 _ZN8QtCharts9QPieSlice7pressedEv@Qt_5 5.7.1
 _ZN8QtCharts9QPieSlice8releasedEv@Qt_5 5.7.1
 _ZN8QtCharts9QPieSlice8setBrushERK6QBrush@Qt_5 5.7.1
 _ZN8QtCharts9QPieSlice8setColorE6QColor@Qt_5 5.7.1
 _ZN8QtCharts9QPieSlice8setLabelE7QString@Qt_5 5.7.1
 _ZN8QtCharts9QPieSlice8setValueEd@Qt_5 5.7.1
 _ZN8QtCharts9QPieSliceC1E7QStringdP7QObject@Qt_5 5.7.1
 _ZN8QtCharts9QPieSliceC1EP7QObject@Qt_5 5.7.1
 _ZN8QtCharts9QPieSliceC2E7QStringdP7QObject@Qt_5 5.7.1
 _ZN8QtCharts9QPieSliceC2EP7QObject@Qt_5 5.7.1
 _ZN8QtCharts9QPieSliceD0Ev@Qt_5 5.7.1
 _ZN8QtCharts9QPieSliceD1Ev@Qt_5 5.7.1
 _ZN8QtCharts9QPieSliceD2Ev@Qt_5 5.7.1
 _ZN8QtCharts9QXYSeries10penChangedERK4QPen@Qt_5 5.7.1
 _ZN8QtCharts9QXYSeries10pointAddedEi@Qt_5 5.7.1
 _ZN8QtCharts9QXYSeries11qt_metacallEN11QMetaObject4CallEiPPv@Qt_5 5.7.1
 _ZN8QtCharts9QXYSeries11qt_metacastEPKc@Qt_5 5.7.1
 _ZN8QtCharts9QXYSeries12colorChangedE6QColor@Qt_5 5.7.1
 _ZN8QtCharts9QXYSeries12pointRemovedEi@Qt_5 5.7.1
 _ZN8QtCharts9QXYSeries12removePointsEii@Qt_5 5.7.1
 _ZN8QtCharts9QXYSeries13doubleClickedERK7QPointF@Qt_5 5.7.1
 _ZN8QtCharts9QXYSeries13pointReplacedEi@Qt_5 5.7.1
 _ZN8QtCharts9QXYSeries13pointsRemovedEii@Qt_5 5.7.1
 _ZN8QtCharts9QXYSeries14pointsReplacedEv@Qt_5 5.7.1
 _ZN8QtCharts9QXYSeries16setPointsVisibleEb@Qt_5 5.7.1
 _ZN8QtCharts9QXYSeries16staticMetaObjectE@Qt_5 5.7.1
 _ZN8QtCharts9QXYSeries18setPointLabelsFontERK5QFont@Qt_5 5.7.1
 _ZN8QtCharts9QXYSeries19setPointLabelsColorERK6QColor@Qt_5 5.7.1
 _ZN8QtCharts9QXYSeries20setPointLabelsFormatERK7QString@Qt_5 5.7.1
 _ZN8QtCharts9QXYSeries21setPointLabelsVisibleEb@Qt_5 5.7.1
 _ZN8QtCharts9QXYSeries22pointLabelsFontChangedERK5QFont@Qt_5 5.7.1
 _ZN8QtCharts9QXYSeries22setPointLabelsClippingEb@Qt_5 5.7.1
 _ZN8QtCharts9QXYSeries23pointLabelsColorChangedERK6QColor@Qt_5 5.7.1
 _ZN8QtCharts9QXYSeries24pointLabelsFormatChangedERK7QString@Qt_5 5.7.1
 _ZN8QtCharts9QXYSeries26pointLabelsClippingChangedEb@Qt_5 5.7.1
 _ZN8QtCharts9QXYSeries28pointLabelsVisibilityChangedEb@Qt_5 5.7.1
 _ZN8QtCharts9QXYSeries5clearEv@Qt_5 5.7.1
 _ZN8QtCharts9QXYSeries6appendERK5QListI7QPointFE@Qt_5 5.7.1
 _ZN8QtCharts9QXYSeries6appendERK7QPointF@Qt_5 5.7.1
 _ZN8QtCharts9QXYSeries6appendEdd@Qt_5 5.7.1
 _ZN8QtCharts9QXYSeries6insertEiRK7QPointF@Qt_5 5.7.1
 _ZN8QtCharts9QXYSeries6removeERK7QPointF@Qt_5 5.7.1
 _ZN8QtCharts9QXYSeries6removeEdd@Qt_5 5.7.1
 _ZN8QtCharts9QXYSeries6removeEi@Qt_5 5.7.1
 _ZN8QtCharts9QXYSeries6setPenERK4QPen@Qt_5 5.7.1
 _ZN8QtCharts9QXYSeries7clickedERK7QPointF@Qt_5 5.7.1
 _ZN8QtCharts9QXYSeries7hoveredERK7QPointFb@Qt_5 5.7.1
 _ZN8QtCharts9QXYSeries7pressedERK7QPointF@Qt_5 5.7.1
 _ZN8QtCharts9QXYSeries7replaceE5QListI7QPointFE@Qt_5 5.7.1
 _ZN8QtCharts9QXYSeries7replaceE7QVectorI7QPointFE@Qt_5 5.7.1
 _ZN8QtCharts9QXYSeries7replaceERK7QPointFS3_@Qt_5 5.7.1
 _ZN8QtCharts9QXYSeries7replaceEdddd@Qt_5 5.7.1
 _ZN8QtCharts9QXYSeries7replaceEiRK7QPointF@Qt_5 5.7.1
 _ZN8QtCharts9QXYSeries7replaceEidd@Qt_5 5.7.1
 _ZN8QtCharts9QXYSeries8releasedERK7QPointF@Qt_5 5.7.1
 _ZN8QtCharts9QXYSeries8setBrushERK6QBrush@Qt_5 5.7.1
 _ZN8QtCharts9QXYSeries8setColorERK6QColor@Qt_5 5.7.1
 _ZN8QtCharts9QXYSeriesC1ERNS_16QXYSeriesPrivateEP7QObject@Qt_5 5.7.1
 _ZN8QtCharts9QXYSeriesC2ERNS_16QXYSeriesPrivateEP7QObject@Qt_5 5.7.1
 _ZN8QtCharts9QXYSeriesD0Ev@Qt_5 5.7.1
 _ZN8QtCharts9QXYSeriesD1Ev@Qt_5 5.7.1
 _ZN8QtCharts9QXYSeriesD2Ev@Qt_5 5.7.1
 _ZN8QtCharts9QXYSerieslsERK5QListI7QPointFE@Qt_5 5.7.1
 _ZN8QtCharts9QXYSerieslsERK7QPointF@Qt_5 5.7.1
 _ZNK8QtCharts10QBarSeries10metaObjectEv@Qt_5 5.7.1
 _ZNK8QtCharts10QBarSeries4typeEv@Qt_5 5.7.1
 _ZNK8QtCharts10QChartView10metaObjectEv@Qt_5 5.7.1
 _ZNK8QtCharts10QChartView10rubberBandEv@Qt_5 5.7.1
 _ZNK8QtCharts10QChartView5chartEv@Qt_5 5.7.1
 _ZNK8QtCharts10QPieSeries10metaObjectEv@Qt_5 5.7.1
 _ZNK8QtCharts10QPieSeries11pieEndAngleEv@Qt_5 5.7.1
 _ZNK8QtCharts10QPieSeries13pieStartAngleEv@Qt_5 5.7.1
 _ZNK8QtCharts10QPieSeries16verticalPositionEv@Qt_5 5.7.1
 _ZNK8QtCharts10QPieSeries18horizontalPositionEv@Qt_5 5.7.1
 _ZNK8QtCharts10QPieSeries3sumEv@Qt_5 5.7.1
 _ZNK8QtCharts10QPieSeries4typeEv@Qt_5 5.7.1
 _ZNK8QtCharts10QPieSeries5countEv@Qt_5 5.7.1
 _ZNK8QtCharts10QPieSeries6slicesEv@Qt_5 5.7.1
 _ZNK8QtCharts10QPieSeries7isEmptyEv@Qt_5 5.7.1
 _ZNK8QtCharts10QPieSeries7pieSizeEv@Qt_5 5.7.1
 _ZNK8QtCharts10QPieSeries8holeSizeEv@Qt_5 5.7.1
 _ZNK8QtCharts10QValueAxis10metaObjectEv@Qt_5 5.7.1
 _ZNK8QtCharts10QValueAxis11labelFormatEv@Qt_5 5.7.1
 _ZNK8QtCharts10QValueAxis14minorTickCountEv@Qt_5 5.7.1
 _ZNK8QtCharts10QValueAxis3maxEv@Qt_5 5.7.1
 _ZNK8QtCharts10QValueAxis3minEv@Qt_5 5.7.1
 _ZNK8QtCharts10QValueAxis4typeEv@Qt_5 5.7.1
 _ZNK8QtCharts10QValueAxis9tickCountEv@Qt_5 5.7.1
 _ZNK8QtCharts11QAreaSeries10metaObjectEv@Qt_5 5.7.1
 _ZNK8QtCharts11QAreaSeries11borderColorEv@Qt_5 5.7.1
 _ZNK8QtCharts11QAreaSeries11lowerSeriesEv@Qt_5 5.7.1
 _ZNK8QtCharts11QAreaSeries11upperSeriesEv@Qt_5 5.7.1
 _ZNK8QtCharts11QAreaSeries13pointsVisibleEv@Qt_5 5.7.1
 _ZNK8QtCharts11QAreaSeries15pointLabelsFontEv@Qt_5 5.7.1
 _ZNK8QtCharts11QAreaSeries16pointLabelsColorEv@Qt_5 5.7.1
 _ZNK8QtCharts11QAreaSeries17pointLabelsFormatEv@Qt_5 5.7.1
 _ZNK8QtCharts11QAreaSeries18pointLabelsVisibleEv@Qt_5 5.7.1
 _ZNK8QtCharts11QAreaSeries19pointLabelsClippingEv@Qt_5 5.7.1
 _ZNK8QtCharts11QAreaSeries3penEv@Qt_5 5.7.1
 _ZNK8QtCharts11QAreaSeries4typeEv@Qt_5 5.7.1
 _ZNK8QtCharts11QAreaSeries5brushEv@Qt_5 5.7.1
 _ZNK8QtCharts11QAreaSeries5colorEv@Qt_5 5.7.1
 _ZNK8QtCharts11QLineSeries10metaObjectEv@Qt_5 5.7.1
 _ZNK8QtCharts11QLineSeries4typeEv@Qt_5 5.7.1
 _ZNK8QtCharts11QPolarChart10metaObjectEv@Qt_5 5.7.1
 _ZNK8QtCharts11QPolarChart4axesE6QFlagsINS0_16PolarOrientationEEPNS_15QAbstractSeriesE@Qt_5 5.7.1
 _ZNK8QtCharts13QAbstractAxis10labelsFontEv@Qt_5 5.7.1
 _ZNK8QtCharts13QAbstractAxis10metaObjectEv@Qt_5 5.7.1
 _ZNK8QtCharts13QAbstractAxis10titleBrushEv@Qt_5 5.7.1
 _ZNK8QtCharts13QAbstractAxis11gridLinePenEv@Qt_5 5.7.1
 _ZNK8QtCharts13QAbstractAxis11labelsAngleEv@Qt_5 5.7.1
 _ZNK8QtCharts13QAbstractAxis11labelsBrushEv@Qt_5 5.7.1
 _ZNK8QtCharts13QAbstractAxis11labelsColorEv@Qt_5 5.7.1
 _ZNK8QtCharts13QAbstractAxis11orientationEv@Qt_5 5.7.1
 _ZNK8QtCharts13QAbstractAxis11shadesBrushEv@Qt_5 5.7.1
 _ZNK8QtCharts13QAbstractAxis11shadesColorEv@Qt_5 5.7.1
 _ZNK8QtCharts13QAbstractAxis12linePenColorEv@Qt_5 5.7.1
 _ZNK8QtCharts13QAbstractAxis13isLineVisibleEv@Qt_5 5.7.1
 _ZNK8QtCharts13QAbstractAxis13labelsVisibleEv@Qt_5 5.7.1
 _ZNK8QtCharts13QAbstractAxis13shadesVisibleEv@Qt_5 5.7.1
 _ZNK8QtCharts13QAbstractAxis14isTitleVisibleEv@Qt_5 5.7.1
 _ZNK8QtCharts13QAbstractAxis16minorGridLinePenEv@Qt_5 5.7.1
 _ZNK8QtCharts13QAbstractAxis17isGridLineVisibleEv@Qt_5 5.7.1
 _ZNK8QtCharts13QAbstractAxis17shadesBorderColorEv@Qt_5 5.7.1
 _ZNK8QtCharts13QAbstractAxis22isMinorGridLineVisibleEv@Qt_5 5.7.1
 _ZNK8QtCharts13QAbstractAxis7linePenEv@Qt_5 5.7.1
 _ZNK8QtCharts13QAbstractAxis9alignmentEv@Qt_5 5.7.1
 _ZNK8QtCharts13QAbstractAxis9isReverseEv@Qt_5 5.7.1
 _ZNK8QtCharts13QAbstractAxis9isVisibleEv@Qt_5 5.7.1
 _ZNK8QtCharts13QAbstractAxis9shadesPenEv@Qt_5 5.7.1
 _ZNK8QtCharts13QAbstractAxis9titleFontEv@Qt_5 5.7.1
 _ZNK8QtCharts13QAbstractAxis9titleTextEv@Qt_5 5.7.1
 _ZNK8QtCharts13QCategoryAxis10metaObjectEv@Qt_5 5.7.1
 _ZNK8QtCharts13QCategoryAxis10startValueERK7QString@Qt_5 5.7.1
 _ZNK8QtCharts13QCategoryAxis14labelsPositionEv@Qt_5 5.7.1
 _ZNK8QtCharts13QCategoryAxis4typeEv@Qt_5 5.7.1
 _ZNK8QtCharts13QCategoryAxis5countEv@Qt_5 5.7.1
 _ZNK8QtCharts13QCategoryAxis8endValueERK7QString@Qt_5 5.7.1
 _ZNK8QtCharts13QDateTimeAxis10metaObjectEv@Qt_5 5.7.1
 _ZNK8QtCharts13QDateTimeAxis3maxEv@Qt_5 5.7.1
 _ZNK8QtCharts13QDateTimeAxis3minEv@Qt_5 5.7.1
 _ZNK8QtCharts13QDateTimeAxis4typeEv@Qt_5 5.7.1
 _ZNK8QtCharts13QDateTimeAxis6formatEv@Qt_5 5.7.1
 _ZNK8QtCharts13QDateTimeAxis9tickCountEv@Qt_5 5.7.1
 _ZNK8QtCharts13QLegendMarker10labelBrushEv@Qt_5 5.7.1
 _ZNK8QtCharts13QLegendMarker10metaObjectEv@Qt_5 5.7.1
 _ZNK8QtCharts13QLegendMarker3penEv@Qt_5 5.7.1
 _ZNK8QtCharts13QLegendMarker4fontEv@Qt_5 5.7.1
 _ZNK8QtCharts13QLegendMarker5brushEv@Qt_5 5.7.1
 _ZNK8QtCharts13QLegendMarker5labelEv@Qt_5 5.7.1
 _ZNK8QtCharts13QLegendMarker5shapeEv@Qt_5 5.9.0~rc
 _ZNK8QtCharts13QLegendMarker9isVisibleEv@Qt_5 5.7.1
 _ZNK8QtCharts13QLogValueAxis10metaObjectEv@Qt_5 5.7.1
 _ZNK8QtCharts13QLogValueAxis11labelFormatEv@Qt_5 5.7.1
 _ZNK8QtCharts13QLogValueAxis14minorTickCountEv@Qt_5 5.9.0~rc
 _ZNK8QtCharts13QLogValueAxis3maxEv@Qt_5 5.7.1
 _ZNK8QtCharts13QLogValueAxis3minEv@Qt_5 5.7.1
 _ZNK8QtCharts13QLogValueAxis4baseEv@Qt_5 5.7.1
 _ZNK8QtCharts13QLogValueAxis4typeEv@Qt_5 5.7.1
 _ZNK8QtCharts13QLogValueAxis9tickCountEv@Qt_5 5.9.0~rc
 _ZNK8QtCharts13QSplineSeries10metaObjectEv@Qt_5 5.7.1
 _ZNK8QtCharts13QSplineSeries4typeEv@Qt_5 5.7.1
 _ZNK8QtCharts14QBoxPlotSeries10metaObjectEv@Qt_5 5.7.1
 _ZNK8QtCharts14QBoxPlotSeries3penEv@Qt_5 5.7.1
 _ZNK8QtCharts14QBoxPlotSeries4typeEv@Qt_5 5.7.1
 _ZNK8QtCharts14QBoxPlotSeries5brushEv@Qt_5 5.7.1
 _ZNK8QtCharts14QBoxPlotSeries5countEv@Qt_5 5.7.1
 _ZNK8QtCharts14QBoxPlotSeries7boxSetsEv@Qt_5 5.7.1
 _ZNK8QtCharts14QScatterSeries10markerSizeEv@Qt_5 5.7.1
 _ZNK8QtCharts14QScatterSeries10metaObjectEv@Qt_5 5.7.1
 _ZNK8QtCharts14QScatterSeries11borderColorEv@Qt_5 5.7.1
 _ZNK8QtCharts14QScatterSeries11markerShapeEv@Qt_5 5.7.1
 _ZNK8QtCharts14QScatterSeries4typeEv@Qt_5 5.7.1
 _ZNK8QtCharts14QScatterSeries5brushEv@Qt_5 5.7.1
 _ZNK8QtCharts14QScatterSeries5colorEv@Qt_5 5.7.1
 _ZNK8QtCharts14QXYModelMapper10metaObjectEv@Qt_5 5.7.1
 _ZNK8QtCharts14QXYModelMapper11orientationEv@Qt_5 5.7.1
 _ZNK8QtCharts14QXYModelMapper5countEv@Qt_5 5.7.1
 _ZNK8QtCharts14QXYModelMapper5firstEv@Qt_5 5.7.1
 _ZNK8QtCharts14QXYModelMapper5modelEv@Qt_5 5.7.1
 _ZNK8QtCharts14QXYModelMapper6seriesEv@Qt_5 5.7.1
 _ZNK8QtCharts14QXYModelMapper8xSectionEv@Qt_5 5.7.1
 _ZNK8QtCharts14QXYModelMapper8ySectionEv@Qt_5 5.7.1
 _ZNK8QtCharts15QAbstractSeries10metaObjectEv@Qt_5 5.7.1
 _ZNK8QtCharts15QAbstractSeries4nameEv@Qt_5 5.7.1
 _ZNK8QtCharts15QAbstractSeries5chartEv@Qt_5 5.7.1
 _ZNK8QtCharts15QAbstractSeries7opacityEv@Qt_5 5.7.1
 _ZNK8QtCharts15QAbstractSeries9isVisibleEv@Qt_5 5.7.1
 _ZNK8QtCharts15QAbstractSeries9useOpenGLEv@Qt_5 5.7.1
 _ZNK8QtCharts15QBarModelMapper10metaObjectEv@Qt_5 5.7.1
 _ZNK8QtCharts15QBarModelMapper11orientationEv@Qt_5 5.7.1
 _ZNK8QtCharts15QBarModelMapper17lastBarSetSectionEv@Qt_5 5.7.1
 _ZNK8QtCharts15QBarModelMapper18firstBarSetSectionEv@Qt_5 5.7.1
 _ZNK8QtCharts15QBarModelMapper5countEv@Qt_5 5.7.1
 _ZNK8QtCharts15QBarModelMapper5firstEv@Qt_5 5.7.1
 _ZNK8QtCharts15QBarModelMapper5modelEv@Qt_5 5.7.1
 _ZNK8QtCharts15QBarModelMapper6seriesEv@Qt_5 5.7.1
 _ZNK8QtCharts15QCandlestickSet10metaObjectEv@Qt_5 5.9.0~rc
 _ZNK8QtCharts15QCandlestickSet3lowEv@Qt_5 5.9.0~rc
 _ZNK8QtCharts15QCandlestickSet3penEv@Qt_5 5.9.0~rc
 _ZNK8QtCharts15QCandlestickSet4highEv@Qt_5 5.9.0~rc
 _ZNK8QtCharts15QCandlestickSet4openEv@Qt_5 5.9.0~rc
 _ZNK8QtCharts15QCandlestickSet5brushEv@Qt_5 5.9.0~rc
 _ZNK8QtCharts15QCandlestickSet5closeEv@Qt_5 5.9.0~rc
 _ZNK8QtCharts15QCandlestickSet9timestampEv@Qt_5 5.9.0~rc
 _ZNK8QtCharts15QHXYModelMapper10metaObjectEv@Qt_5 5.7.1
 _ZNK8QtCharts15QHXYModelMapper11columnCountEv@Qt_5 5.7.1
 _ZNK8QtCharts15QHXYModelMapper11firstColumnEv@Qt_5 5.7.1
 _ZNK8QtCharts15QHXYModelMapper4xRowEv@Qt_5 5.7.1
 _ZNK8QtCharts15QHXYModelMapper4yRowEv@Qt_5 5.7.1
 _ZNK8QtCharts15QHXYModelMapper5modelEv@Qt_5 5.7.1
 _ZNK8QtCharts15QHXYModelMapper6seriesEv@Qt_5 5.7.1
 _ZNK8QtCharts15QPieModelMapper10metaObjectEv@Qt_5 5.7.1
 _ZNK8QtCharts15QPieModelMapper11orientationEv@Qt_5 5.7.1
 _ZNK8QtCharts15QPieModelMapper13labelsSectionEv@Qt_5 5.7.1
 _ZNK8QtCharts15QPieModelMapper13valuesSectionEv@Qt_5 5.7.1
 _ZNK8QtCharts15QPieModelMapper5countEv@Qt_5 5.7.1
 _ZNK8QtCharts15QPieModelMapper5firstEv@Qt_5 5.7.1
 _ZNK8QtCharts15QPieModelMapper5modelEv@Qt_5 5.7.1
 _ZNK8QtCharts15QPieModelMapper6seriesEv@Qt_5 5.7.1
 _ZNK8QtCharts15QVXYModelMapper10metaObjectEv@Qt_5 5.7.1
 _ZNK8QtCharts15QVXYModelMapper5modelEv@Qt_5 5.7.1
 _ZNK8QtCharts15QVXYModelMapper6seriesEv@Qt_5 5.7.1
 _ZNK8QtCharts15QVXYModelMapper7xColumnEv@Qt_5 5.7.1
 _ZNK8QtCharts15QVXYModelMapper7yColumnEv@Qt_5 5.7.1
 _ZNK8QtCharts15QVXYModelMapper8firstRowEv@Qt_5 5.7.1
 _ZNK8QtCharts15QVXYModelMapper8rowCountEv@Qt_5 5.7.1
 _ZNK8QtCharts15QXYLegendMarker10metaObjectEv@Qt_5 5.7.1
 _ZNK8QtCharts16QBarCategoryAxis10metaObjectEv@Qt_5 5.7.1
 _ZNK8QtCharts16QBarCategoryAxis2atEi@Qt_5 5.7.1
 _ZNK8QtCharts16QBarCategoryAxis3maxEv@Qt_5 5.7.1
 _ZNK8QtCharts16QBarCategoryAxis3minEv@Qt_5 5.7.1
 _ZNK8QtCharts16QBarCategoryAxis4typeEv@Qt_5 5.7.1
 _ZNK8QtCharts16QBarCategoryAxis5countEv@Qt_5 5.7.1
 _ZNK8QtCharts16QBarLegendMarker10metaObjectEv@Qt_5 5.7.1
 _ZNK8QtCharts16QHBarModelMapper10metaObjectEv@Qt_5 5.7.1
 _ZNK8QtCharts16QHBarModelMapper11columnCountEv@Qt_5 5.7.1
 _ZNK8QtCharts16QHBarModelMapper11firstColumnEv@Qt_5 5.7.1
 _ZNK8QtCharts16QHBarModelMapper13lastBarSetRowEv@Qt_5 5.7.1
 _ZNK8QtCharts16QHBarModelMapper14firstBarSetRowEv@Qt_5 5.7.1
 _ZNK8QtCharts16QHBarModelMapper5modelEv@Qt_5 5.7.1
 _ZNK8QtCharts16QHBarModelMapper6seriesEv@Qt_5 5.7.1
 _ZNK8QtCharts16QHPieModelMapper10metaObjectEv@Qt_5 5.7.1
 _ZNK8QtCharts16QHPieModelMapper11columnCountEv@Qt_5 5.7.1
 _ZNK8QtCharts16QHPieModelMapper11firstColumnEv@Qt_5 5.7.1
 _ZNK8QtCharts16QHPieModelMapper5modelEv@Qt_5 5.7.1
 _ZNK8QtCharts16QHPieModelMapper6seriesEv@Qt_5 5.7.1
 _ZNK8QtCharts16QHPieModelMapper9labelsRowEv@Qt_5 5.7.1
 _ZNK8QtCharts16QHPieModelMapper9valuesRowEv@Qt_5 5.7.1
 _ZNK8QtCharts16QPieLegendMarker10metaObjectEv@Qt_5 5.7.1
 _ZNK8QtCharts16QVBarModelMapper10metaObjectEv@Qt_5 5.7.1
 _ZNK8QtCharts16QVBarModelMapper16lastBarSetColumnEv@Qt_5 5.7.1
 _ZNK8QtCharts16QVBarModelMapper17firstBarSetColumnEv@Qt_5 5.7.1
 _ZNK8QtCharts16QVBarModelMapper5modelEv@Qt_5 5.7.1
 _ZNK8QtCharts16QVBarModelMapper6seriesEv@Qt_5 5.7.1
 _ZNK8QtCharts16QVBarModelMapper8firstRowEv@Qt_5 5.7.1
 _ZNK8QtCharts16QVBarModelMapper8rowCountEv@Qt_5 5.7.1
 _ZNK8QtCharts16QVPieModelMapper10metaObjectEv@Qt_5 5.7.1
 _ZNK8QtCharts16QVPieModelMapper12labelsColumnEv@Qt_5 5.7.1
 _ZNK8QtCharts16QVPieModelMapper12valuesColumnEv@Qt_5 5.7.1
 _ZNK8QtCharts16QVPieModelMapper5modelEv@Qt_5 5.7.1
 _ZNK8QtCharts16QVPieModelMapper6seriesEv@Qt_5 5.7.1
 _ZNK8QtCharts16QVPieModelMapper8firstRowEv@Qt_5 5.7.1
 _ZNK8QtCharts16QVPieModelMapper8rowCountEv@Qt_5 5.7.1
 _ZNK8QtCharts17QAreaLegendMarker10metaObjectEv@Qt_5 5.7.1
 _ZNK8QtCharts17QPercentBarSeries10metaObjectEv@Qt_5 5.7.1
 _ZNK8QtCharts17QPercentBarSeries4typeEv@Qt_5 5.7.1
 _ZNK8QtCharts17QStackedBarSeries10metaObjectEv@Qt_5 5.7.1
 _ZNK8QtCharts17QStackedBarSeries4typeEv@Qt_5 5.7.1
 _ZNK8QtCharts18QAbstractBarSeries10metaObjectEv@Qt_5 5.7.1
 _ZNK8QtCharts18QAbstractBarSeries11labelsAngleEv@Qt_5 5.7.1
 _ZNK8QtCharts18QAbstractBarSeries12labelsFormatEv@Qt_5 5.7.1
 _ZNK8QtCharts18QAbstractBarSeries14labelsPositionEv@Qt_5 5.7.1
 _ZNK8QtCharts18QAbstractBarSeries15isLabelsVisibleEv@Qt_5 5.7.1
 _ZNK8QtCharts18QAbstractBarSeries5countEv@Qt_5 5.7.1
 _ZNK8QtCharts18QAbstractBarSeries7barSetsEv@Qt_5 5.7.1
 _ZNK8QtCharts18QAbstractBarSeries8barWidthEv@Qt_5 5.7.1
 _ZNK8QtCharts18QCandlestickSeries10metaObjectEv@Qt_5 5.9.0~rc
 _ZNK8QtCharts18QCandlestickSeries11capsVisibleEv@Qt_5 5.9.0~rc
 _ZNK8QtCharts18QCandlestickSeries15decreasingColorEv@Qt_5 5.9.0~rc
 _ZNK8QtCharts18QCandlestickSeries15increasingColorEv@Qt_5 5.9.0~rc
 _ZNK8QtCharts18QCandlestickSeries18bodyOutlineVisibleEv@Qt_5 5.9.0~rc
 _ZNK8QtCharts18QCandlestickSeries18maximumColumnWidthEv@Qt_5 5.9.0~rc
 _ZNK8QtCharts18QCandlestickSeries18minimumColumnWidthEv@Qt_5 5.9.0~rc
 _ZNK8QtCharts18QCandlestickSeries3penEv@Qt_5 5.9.0~rc
 _ZNK8QtCharts18QCandlestickSeries4setsEv@Qt_5 5.9.0~rc
 _ZNK8QtCharts18QCandlestickSeries4typeEv@Qt_5 5.9.0~rc
 _ZNK8QtCharts18QCandlestickSeries5brushEv@Qt_5 5.9.0~rc
 _ZNK8QtCharts18QCandlestickSeries5countEv@Qt_5 5.9.0~rc
 _ZNK8QtCharts18QCandlestickSeries9bodyWidthEv@Qt_5 5.9.0~rc
 _ZNK8QtCharts18QCandlestickSeries9capsWidthEv@Qt_5 5.9.0~rc
 _ZNK8QtCharts19QBoxPlotModelMapper10metaObjectEv@Qt_5 5.7.1
 _ZNK8QtCharts19QBoxPlotModelMapper11orientationEv@Qt_5 5.7.1
 _ZNK8QtCharts19QBoxPlotModelMapper17lastBoxSetSectionEv@Qt_5 5.7.1
 _ZNK8QtCharts19QBoxPlotModelMapper18firstBoxSetSectionEv@Qt_5 5.7.1
 _ZNK8QtCharts19QBoxPlotModelMapper5countEv@Qt_5 5.7.1
 _ZNK8QtCharts19QBoxPlotModelMapper5firstEv@Qt_5 5.7.1
 _ZNK8QtCharts19QBoxPlotModelMapper5modelEv@Qt_5 5.7.1
 _ZNK8QtCharts19QBoxPlotModelMapper6seriesEv@Qt_5 5.7.1
 _ZNK8QtCharts20QBoxPlotLegendMarker10metaObjectEv@Qt_5 5.7.1
 _ZNK8QtCharts20QHBoxPlotModelMapper10metaObjectEv@Qt_5 5.9.0~rc
 _ZNK8QtCharts20QHBoxPlotModelMapper11columnCountEv@Qt_5 5.9.0~rc
 _ZNK8QtCharts20QHBoxPlotModelMapper11firstColumnEv@Qt_5 5.9.0~rc
 _ZNK8QtCharts20QHBoxPlotModelMapper13lastBoxSetRowEv@Qt_5 5.9.0~rc
 _ZNK8QtCharts20QHBoxPlotModelMapper14firstBoxSetRowEv@Qt_5 5.9.0~rc
 _ZNK8QtCharts20QHBoxPlotModelMapper5modelEv@Qt_5 5.9.0~rc
 _ZNK8QtCharts20QHBoxPlotModelMapper6seriesEv@Qt_5 5.9.0~rc
 _ZNK8QtCharts20QHorizontalBarSeries10metaObjectEv@Qt_5 5.7.1
 _ZNK8QtCharts20QHorizontalBarSeries4typeEv@Qt_5 5.7.1
 _ZNK8QtCharts20QVBoxPlotModelMapper10metaObjectEv@Qt_5 5.7.1
 _ZNK8QtCharts20QVBoxPlotModelMapper16lastBoxSetColumnEv@Qt_5 5.7.1
 _ZNK8QtCharts20QVBoxPlotModelMapper17firstBoxSetColumnEv@Qt_5 5.7.1
 _ZNK8QtCharts20QVBoxPlotModelMapper5modelEv@Qt_5 5.7.1
 _ZNK8QtCharts20QVBoxPlotModelMapper6seriesEv@Qt_5 5.7.1
 _ZNK8QtCharts20QVBoxPlotModelMapper8firstRowEv@Qt_5 5.7.1
 _ZNK8QtCharts20QVBoxPlotModelMapper8rowCountEv@Qt_5 5.7.1
 _ZNK8QtCharts23QCandlestickModelMapper10metaObjectEv@Qt_5 5.9.0~rc
 _ZNK8QtCharts23QCandlestickModelMapper14lastSetSectionEv@Qt_5 5.9.0~rc
 _ZNK8QtCharts23QCandlestickModelMapper15firstSetSectionEv@Qt_5 5.9.0~rc
 _ZNK8QtCharts23QCandlestickModelMapper3lowEv@Qt_5 5.9.0~rc
 _ZNK8QtCharts23QCandlestickModelMapper4highEv@Qt_5 5.9.0~rc
 _ZNK8QtCharts23QCandlestickModelMapper4openEv@Qt_5 5.9.0~rc
 _ZNK8QtCharts23QCandlestickModelMapper5closeEv@Qt_5 5.9.0~rc
 _ZNK8QtCharts23QCandlestickModelMapper5modelEv@Qt_5 5.9.0~rc
 _ZNK8QtCharts23QCandlestickModelMapper6seriesEv@Qt_5 5.9.0~rc
 _ZNK8QtCharts23QCandlestickModelMapper9timestampEv@Qt_5 5.9.0~rc
 _ZNK8QtCharts24QCandlestickLegendMarker10metaObjectEv@Qt_5 5.9.0~rc
 _ZNK8QtCharts24QHCandlestickModelMapper10highColumnEv@Qt_5 5.9.0~rc
 _ZNK8QtCharts24QHCandlestickModelMapper10lastSetRowEv@Qt_5 5.9.0~rc
 _ZNK8QtCharts24QHCandlestickModelMapper10metaObjectEv@Qt_5 5.9.0~rc
 _ZNK8QtCharts24QHCandlestickModelMapper10openColumnEv@Qt_5 5.9.0~rc
 _ZNK8QtCharts24QHCandlestickModelMapper11closeColumnEv@Qt_5 5.9.0~rc
 _ZNK8QtCharts24QHCandlestickModelMapper11firstSetRowEv@Qt_5 5.9.0~rc
 _ZNK8QtCharts24QHCandlestickModelMapper11orientationEv@Qt_5 5.9.0~rc
 _ZNK8QtCharts24QHCandlestickModelMapper15timestampColumnEv@Qt_5 5.9.0~rc
 _ZNK8QtCharts24QHCandlestickModelMapper9lowColumnEv@Qt_5 5.9.0~rc
 _ZNK8QtCharts24QVCandlestickModelMapper10metaObjectEv@Qt_5 5.9.0~rc
 _ZNK8QtCharts24QVCandlestickModelMapper11orientationEv@Qt_5 5.9.0~rc
 _ZNK8QtCharts24QVCandlestickModelMapper12timestampRowEv@Qt_5 5.9.0~rc
 _ZNK8QtCharts24QVCandlestickModelMapper13lastSetColumnEv@Qt_5 5.9.0~rc
 _ZNK8QtCharts24QVCandlestickModelMapper14firstSetColumnEv@Qt_5 5.9.0~rc
 _ZNK8QtCharts24QVCandlestickModelMapper6lowRowEv@Qt_5 5.9.0~rc
 _ZNK8QtCharts24QVCandlestickModelMapper7highRowEv@Qt_5 5.9.0~rc
 _ZNK8QtCharts24QVCandlestickModelMapper7openRowEv@Qt_5 5.9.0~rc
 _ZNK8QtCharts24QVCandlestickModelMapper8closeRowEv@Qt_5 5.9.0~rc
 _ZNK8QtCharts27QHorizontalPercentBarSeries10metaObjectEv@Qt_5 5.7.1
 _ZNK8QtCharts27QHorizontalPercentBarSeries4typeEv@Qt_5 5.7.1
 _ZNK8QtCharts27QHorizontalStackedBarSeries10metaObjectEv@Qt_5 5.7.1
 _ZNK8QtCharts27QHorizontalStackedBarSeries4typeEv@Qt_5 5.7.1
 _ZNK8QtCharts6QChart10metaObjectEv@Qt_5 5.7.1
 _ZNK8QtCharts6QChart10titleBrushEv@Qt_5 5.7.1
 _ZNK8QtCharts6QChart13backgroundPenEv@Qt_5 5.7.1
 _ZNK8QtCharts6QChart15backgroundBrushEv@Qt_5 5.7.1
 _ZNK8QtCharts6QChart15localizeNumbersEv@Qt_5 5.7.1
 _ZNK8QtCharts6QChart16animationOptionsEv@Qt_5 5.7.1
 _ZNK8QtCharts6QChart17animationDurationEv@Qt_5 5.7.1
 _ZNK8QtCharts6QChart19backgroundRoundnessEv@Qt_5 5.7.1
 _ZNK8QtCharts6QChart19isBackgroundVisibleEv@Qt_5 5.7.1
 _ZNK8QtCharts6QChart19isDropShadowEnabledEv@Qt_5 5.7.1
 _ZNK8QtCharts6QChart20animationEasingCurveEv@Qt_5 5.7.1
 _ZNK8QtCharts6QChart21plotAreaBackgroundPenEv@Qt_5 5.7.1
 _ZNK8QtCharts6QChart23plotAreaBackgroundBrushEv@Qt_5 5.7.1
 _ZNK8QtCharts6QChart27isPlotAreaBackgroundVisibleEv@Qt_5 5.7.1
 _ZNK8QtCharts6QChart4axesE6QFlagsIN2Qt11OrientationEEPNS_15QAbstractSeriesE@Qt_5 5.7.1
 _ZNK8QtCharts6QChart5axisXEPNS_15QAbstractSeriesE@Qt_5 5.7.1
 _ZNK8QtCharts6QChart5axisYEPNS_15QAbstractSeriesE@Qt_5 5.7.1
 _ZNK8QtCharts6QChart5themeEv@Qt_5 5.7.1
 _ZNK8QtCharts6QChart5titleEv@Qt_5 5.7.1
 _ZNK8QtCharts6QChart6legendEv@Qt_5 5.7.1
 _ZNK8QtCharts6QChart6localeEv@Qt_5 5.7.1
 _ZNK8QtCharts6QChart6seriesEv@Qt_5 5.7.1
 _ZNK8QtCharts6QChart7marginsEv@Qt_5 5.7.1
 _ZNK8QtCharts6QChart8plotAreaEv@Qt_5 5.7.1
 _ZNK8QtCharts6QChart9chartTypeEv@Qt_5 5.7.1
 _ZNK8QtCharts6QChart9titleFontEv@Qt_5 5.7.1
 _ZNK8QtCharts7QBarSet10labelBrushEv@Qt_5 5.7.1
 _ZNK8QtCharts7QBarSet10metaObjectEv@Qt_5 5.7.1
 _ZNK8QtCharts7QBarSet2atEi@Qt_5 5.7.1
 _ZNK8QtCharts7QBarSet3penEv@Qt_5 5.7.1
 _ZNK8QtCharts7QBarSet3sumEv@Qt_5 5.7.1
 _ZNK8QtCharts7QBarSet5brushEv@Qt_5 5.7.1
 _ZNK8QtCharts7QBarSet5countEv@Qt_5 5.7.1
 _ZNK8QtCharts7QBarSet5labelEv@Qt_5 5.7.1
 _ZNK8QtCharts7QBarSet9labelFontEv@Qt_5 5.7.1
 _ZNK8QtCharts7QBarSetixEi@Qt_5 5.7.1
 _ZNK8QtCharts7QBoxSet10metaObjectEv@Qt_5 5.7.1
 _ZNK8QtCharts7QBoxSet2atEi@Qt_5 5.7.1
 _ZNK8QtCharts7QBoxSet3penEv@Qt_5 5.7.1
 _ZNK8QtCharts7QBoxSet5brushEv@Qt_5 5.7.1
 _ZNK8QtCharts7QBoxSet5countEv@Qt_5 5.7.1
 _ZNK8QtCharts7QBoxSet5labelEv@Qt_5 5.7.1
 _ZNK8QtCharts7QBoxSetixEi@Qt_5 5.7.1
 _ZNK8QtCharts7QLegend10labelBrushEv@Qt_5 5.7.1
 _ZNK8QtCharts7QLegend10labelColorEv@Qt_5 5.7.1
 _ZNK8QtCharts7QLegend10metaObjectEv@Qt_5 5.7.1
 _ZNK8QtCharts7QLegend11markerShapeEv@Qt_5 5.9.0~rc
 _ZNK8QtCharts7QLegend12showToolTipsEv@Qt_5 5.7.1
 _ZNK8QtCharts7QLegend19isBackgroundVisibleEv@Qt_5 5.7.1
 _ZNK8QtCharts7QLegend3penEv@Qt_5 5.7.1
 _ZNK8QtCharts7QLegend4fontEv@Qt_5 5.7.1
 _ZNK8QtCharts7QLegend5brushEv@Qt_5 5.7.1
 _ZNK8QtCharts7QLegend7markersEPNS_15QAbstractSeriesE@Qt_5 5.7.1
 _ZNK8QtCharts7QLegend9alignmentEv@Qt_5 5.7.1
 _ZNK8QtCharts9QPieSlice10isExplodedEv@Qt_5 5.7.1
 _ZNK8QtCharts9QPieSlice10labelBrushEv@Qt_5 5.7.1
 _ZNK8QtCharts9QPieSlice10metaObjectEv@Qt_5 5.7.1
 _ZNK8QtCharts9QPieSlice10percentageEv@Qt_5 5.7.1
 _ZNK8QtCharts9QPieSlice10startAngleEv@Qt_5 5.7.1
 _ZNK8QtCharts9QPieSlice14isLabelVisibleEv@Qt_5 5.7.1
 _ZNK8QtCharts9QPieSlice20labelArmLengthFactorEv@Qt_5 5.7.1
 _ZNK8QtCharts9QPieSlice21explodeDistanceFactorEv@Qt_5 5.7.1
 _ZNK8QtCharts9QPieSlice3penEv@Qt_5 5.7.1
 _ZNK8QtCharts9QPieSlice5brushEv@Qt_5 5.7.1
 _ZNK8QtCharts9QPieSlice5labelEv@Qt_5 5.7.1
 _ZNK8QtCharts9QPieSlice5valueEv@Qt_5 5.7.1
 _ZNK8QtCharts9QPieSlice6seriesEv@Qt_5 5.7.1
 _ZNK8QtCharts9QPieSlice9angleSpanEv@Qt_5 5.7.1
 _ZNK8QtCharts9QPieSlice9labelFontEv@Qt_5 5.7.1
 _ZNK8QtCharts9QXYSeries10metaObjectEv@Qt_5 5.7.1
 _ZNK8QtCharts9QXYSeries12pointsVectorEv@Qt_5 5.7.1
 _ZNK8QtCharts9QXYSeries13pointsVisibleEv@Qt_5 5.7.1
 _ZNK8QtCharts9QXYSeries15pointLabelsFontEv@Qt_5 5.7.1
 _ZNK8QtCharts9QXYSeries16pointLabelsColorEv@Qt_5 5.7.1
 _ZNK8QtCharts9QXYSeries17pointLabelsFormatEv@Qt_5 5.7.1
 _ZNK8QtCharts9QXYSeries18pointLabelsVisibleEv@Qt_5 5.7.1
 _ZNK8QtCharts9QXYSeries19pointLabelsClippingEv@Qt_5 5.7.1
 _ZNK8QtCharts9QXYSeries2atEi@Qt_5 5.7.1
 _ZNK8QtCharts9QXYSeries3penEv@Qt_5 5.7.1
 _ZNK8QtCharts9QXYSeries5brushEv@Qt_5 5.7.1
 _ZNK8QtCharts9QXYSeries5colorEv@Qt_5 5.7.1
 _ZNK8QtCharts9QXYSeries5countEv@Qt_5 5.7.1
 _ZNK8QtCharts9QXYSeries6pointsEv@Qt_5 5.7.1
 _ZTI16QOpenGLFunctions@Qt_5 5.7.1
 _ZTIN8QtCharts10QBarSeriesE@Qt_5 5.7.1
 _ZTIN8QtCharts10QChartViewE@Qt_5 5.7.1
 _ZTIN8QtCharts10QPieSeriesE@Qt_5 5.7.1
 _ZTIN8QtCharts10QValueAxisE@Qt_5 5.7.1
 _ZTIN8QtCharts11QAreaSeriesE@Qt_5 5.7.1
 _ZTIN8QtCharts11QLineSeriesE@Qt_5 5.7.1
 _ZTIN8QtCharts11QPolarChartE@Qt_5 5.7.1
 _ZTIN8QtCharts13QAbstractAxisE@Qt_5 5.7.1
 _ZTIN8QtCharts13QCategoryAxisE@Qt_5 5.7.1
 _ZTIN8QtCharts13QDateTimeAxisE@Qt_5 5.7.1
 _ZTIN8QtCharts13QLegendMarkerE@Qt_5 5.7.1
 _ZTIN8QtCharts13QLogValueAxisE@Qt_5 5.7.1
 _ZTIN8QtCharts13QSplineSeriesE@Qt_5 5.7.1
 _ZTIN8QtCharts14QBoxPlotSeriesE@Qt_5 5.7.1
 _ZTIN8QtCharts14QScatterSeriesE@Qt_5 5.7.1
 _ZTIN8QtCharts14QXYModelMapperE@Qt_5 5.7.1
 _ZTIN8QtCharts15QAbstractSeriesE@Qt_5 5.7.1
 _ZTIN8QtCharts15QBarModelMapperE@Qt_5 5.7.1
 _ZTIN8QtCharts15QCandlestickSetE@Qt_5 5.9.0~rc
 _ZTIN8QtCharts15QHXYModelMapperE@Qt_5 5.7.1
 _ZTIN8QtCharts15QPieModelMapperE@Qt_5 5.7.1
 _ZTIN8QtCharts15QVXYModelMapperE@Qt_5 5.7.1
 _ZTIN8QtCharts15QXYLegendMarkerE@Qt_5 5.7.1
 _ZTIN8QtCharts16QBarCategoryAxisE@Qt_5 5.7.1
 _ZTIN8QtCharts16QBarLegendMarkerE@Qt_5 5.7.1
 _ZTIN8QtCharts16QHBarModelMapperE@Qt_5 5.7.1
 _ZTIN8QtCharts16QHPieModelMapperE@Qt_5 5.7.1
 _ZTIN8QtCharts16QPieLegendMarkerE@Qt_5 5.7.1
 _ZTIN8QtCharts16QVBarModelMapperE@Qt_5 5.7.1
 _ZTIN8QtCharts16QVPieModelMapperE@Qt_5 5.7.1
 _ZTIN8QtCharts17QAreaLegendMarkerE@Qt_5 5.7.1
 _ZTIN8QtCharts17QPercentBarSeriesE@Qt_5 5.7.1
 _ZTIN8QtCharts17QStackedBarSeriesE@Qt_5 5.7.1
 _ZTIN8QtCharts18QAbstractBarSeriesE@Qt_5 5.7.1
 _ZTIN8QtCharts18QCandlestickSeriesE@Qt_5 5.9.0~rc
 _ZTIN8QtCharts19QBoxPlotModelMapperE@Qt_5 5.7.1
 _ZTIN8QtCharts20QBoxPlotLegendMarkerE@Qt_5 5.7.1
 _ZTIN8QtCharts20QHBoxPlotModelMapperE@Qt_5 5.9.0~rc
 _ZTIN8QtCharts20QHorizontalBarSeriesE@Qt_5 5.7.1
 _ZTIN8QtCharts20QVBoxPlotModelMapperE@Qt_5 5.7.1
 _ZTIN8QtCharts23QCandlestickModelMapperE@Qt_5 5.9.0~rc
 _ZTIN8QtCharts24QCandlestickLegendMarkerE@Qt_5 5.9.0~rc
 _ZTIN8QtCharts24QHCandlestickModelMapperE@Qt_5 5.9.0~rc
 _ZTIN8QtCharts24QVCandlestickModelMapperE@Qt_5 5.9.0~rc
 _ZTIN8QtCharts27QHorizontalPercentBarSeriesE@Qt_5 5.7.1
 _ZTIN8QtCharts27QHorizontalStackedBarSeriesE@Qt_5 5.7.1
 _ZTIN8QtCharts6QChartE@Qt_5 5.7.1
 _ZTIN8QtCharts7QBarSetE@Qt_5 5.7.1
 _ZTIN8QtCharts7QBoxSetE@Qt_5 5.7.1
 _ZTIN8QtCharts7QLegendE@Qt_5 5.7.1
 _ZTIN8QtCharts9QPieSliceE@Qt_5 5.7.1
 _ZTIN8QtCharts9QXYSeriesE@Qt_5 5.7.1
 _ZTS16QOpenGLFunctions@Qt_5 5.7.1
 _ZTSN8QtCharts10QBarSeriesE@Qt_5 5.7.1
 _ZTSN8QtCharts10QChartViewE@Qt_5 5.7.1
 _ZTSN8QtCharts10QPieSeriesE@Qt_5 5.7.1
 _ZTSN8QtCharts10QValueAxisE@Qt_5 5.7.1
 _ZTSN8QtCharts11QAreaSeriesE@Qt_5 5.7.1
 _ZTSN8QtCharts11QLineSeriesE@Qt_5 5.7.1
 _ZTSN8QtCharts11QPolarChartE@Qt_5 5.7.1
 _ZTSN8QtCharts13QAbstractAxisE@Qt_5 5.7.1
 _ZTSN8QtCharts13QCategoryAxisE@Qt_5 5.7.1
 _ZTSN8QtCharts13QDateTimeAxisE@Qt_5 5.7.1
 _ZTSN8QtCharts13QLegendMarkerE@Qt_5 5.7.1
 _ZTSN8QtCharts13QLogValueAxisE@Qt_5 5.7.1
 _ZTSN8QtCharts13QSplineSeriesE@Qt_5 5.7.1
 _ZTSN8QtCharts14QBoxPlotSeriesE@Qt_5 5.7.1
 _ZTSN8QtCharts14QScatterSeriesE@Qt_5 5.7.1
 _ZTSN8QtCharts14QXYModelMapperE@Qt_5 5.7.1
 _ZTSN8QtCharts15QAbstractSeriesE@Qt_5 5.7.1
 _ZTSN8QtCharts15QBarModelMapperE@Qt_5 5.7.1
 _ZTSN8QtCharts15QCandlestickSetE@Qt_5 5.9.0~rc
 _ZTSN8QtCharts15QHXYModelMapperE@Qt_5 5.7.1
 _ZTSN8QtCharts15QPieModelMapperE@Qt_5 5.7.1
 _ZTSN8QtCharts15QVXYModelMapperE@Qt_5 5.7.1
 _ZTSN8QtCharts15QXYLegendMarkerE@Qt_5 5.7.1
 _ZTSN8QtCharts16QBarCategoryAxisE@Qt_5 5.7.1
 _ZTSN8QtCharts16QBarLegendMarkerE@Qt_5 5.7.1
 _ZTSN8QtCharts16QHBarModelMapperE@Qt_5 5.7.1
 _ZTSN8QtCharts16QHPieModelMapperE@Qt_5 5.7.1
 _ZTSN8QtCharts16QPieLegendMarkerE@Qt_5 5.7.1
 _ZTSN8QtCharts16QVBarModelMapperE@Qt_5 5.7.1
 _ZTSN8QtCharts16QVPieModelMapperE@Qt_5 5.7.1
 _ZTSN8QtCharts17QAreaLegendMarkerE@Qt_5 5.7.1
 _ZTSN8QtCharts17QPercentBarSeriesE@Qt_5 5.7.1
 _ZTSN8QtCharts17QStackedBarSeriesE@Qt_5 5.7.1
 _ZTSN8QtCharts18QAbstractBarSeriesE@Qt_5 5.7.1
 _ZTSN8QtCharts18QCandlestickSeriesE@Qt_5 5.9.0~rc
 _ZTSN8QtCharts19QBoxPlotModelMapperE@Qt_5 5.7.1
 _ZTSN8QtCharts20QBoxPlotLegendMarkerE@Qt_5 5.7.1
 _ZTSN8QtCharts20QHBoxPlotModelMapperE@Qt_5 5.9.0~rc
 _ZTSN8QtCharts20QHorizontalBarSeriesE@Qt_5 5.7.1
 _ZTSN8QtCharts20QVBoxPlotModelMapperE@Qt_5 5.7.1
 _ZTSN8QtCharts23QCandlestickModelMapperE@Qt_5 5.9.0~rc
 _ZTSN8QtCharts24QCandlestickLegendMarkerE@Qt_5 5.9.0~rc
 _ZTSN8QtCharts24QHCandlestickModelMapperE@Qt_5 5.9.0~rc
 _ZTSN8QtCharts24QVCandlestickModelMapperE@Qt_5 5.9.0~rc
 _ZTSN8QtCharts27QHorizontalPercentBarSeriesE@Qt_5 5.7.1
 _ZTSN8QtCharts27QHorizontalStackedBarSeriesE@Qt_5 5.7.1
 _ZTSN8QtCharts6QChartE@Qt_5 5.7.1
 _ZTSN8QtCharts7QBarSetE@Qt_5 5.7.1
 _ZTSN8QtCharts7QBoxSetE@Qt_5 5.7.1
 _ZTSN8QtCharts7QLegendE@Qt_5 5.7.1
 _ZTSN8QtCharts9QPieSliceE@Qt_5 5.7.1
 _ZTSN8QtCharts9QXYSeriesE@Qt_5 5.7.1
 _ZTVN8QtCharts10QBarSeriesE@Qt_5 5.7.1
 _ZTVN8QtCharts10QChartViewE@Qt_5 5.7.1
 _ZTVN8QtCharts10QPieSeriesE@Qt_5 5.7.1
 _ZTVN8QtCharts10QValueAxisE@Qt_5 5.7.1
 _ZTVN8QtCharts11QAreaSeriesE@Qt_5 5.7.1
 _ZTVN8QtCharts11QLineSeriesE@Qt_5 5.7.1
 _ZTVN8QtCharts11QPolarChartE@Qt_5 5.7.1
 _ZTVN8QtCharts13QAbstractAxisE@Qt_5 5.7.1
 _ZTVN8QtCharts13QCategoryAxisE@Qt_5 5.7.1
 _ZTVN8QtCharts13QDateTimeAxisE@Qt_5 5.7.1
 _ZTVN8QtCharts13QLegendMarkerE@Qt_5 5.7.1
 _ZTVN8QtCharts13QLogValueAxisE@Qt_5 5.7.1
 _ZTVN8QtCharts13QSplineSeriesE@Qt_5 5.7.1
 _ZTVN8QtCharts14QBoxPlotSeriesE@Qt_5 5.7.1
 _ZTVN8QtCharts14QScatterSeriesE@Qt_5 5.7.1
 _ZTVN8QtCharts14QXYModelMapperE@Qt_5 5.7.1
 _ZTVN8QtCharts15QAbstractSeriesE@Qt_5 5.7.1
 _ZTVN8QtCharts15QBarModelMapperE@Qt_5 5.7.1
 _ZTVN8QtCharts15QCandlestickSetE@Qt_5 5.9.0~rc
 _ZTVN8QtCharts15QHXYModelMapperE@Qt_5 5.7.1
 _ZTVN8QtCharts15QPieModelMapperE@Qt_5 5.7.1
 _ZTVN8QtCharts15QVXYModelMapperE@Qt_5 5.7.1
 _ZTVN8QtCharts15QXYLegendMarkerE@Qt_5 5.7.1
 _ZTVN8QtCharts16QBarCategoryAxisE@Qt_5 5.7.1
 _ZTVN8QtCharts16QBarLegendMarkerE@Qt_5 5.7.1
 _ZTVN8QtCharts16QHBarModelMapperE@Qt_5 5.7.1
 _ZTVN8QtCharts16QHPieModelMapperE@Qt_5 5.7.1
 _ZTVN8QtCharts16QPieLegendMarkerE@Qt_5 5.7.1
 _ZTVN8QtCharts16QVBarModelMapperE@Qt_5 5.7.1
 _ZTVN8QtCharts16QVPieModelMapperE@Qt_5 5.7.1
 _ZTVN8QtCharts17QAreaLegendMarkerE@Qt_5 5.7.1
 _ZTVN8QtCharts17QPercentBarSeriesE@Qt_5 5.7.1
 _ZTVN8QtCharts17QStackedBarSeriesE@Qt_5 5.7.1
 _ZTVN8QtCharts18QAbstractBarSeriesE@Qt_5 5.7.1
 _ZTVN8QtCharts18QCandlestickSeriesE@Qt_5 5.9.0~rc
 _ZTVN8QtCharts19QBoxPlotModelMapperE@Qt_5 5.7.1
 _ZTVN8QtCharts20QBoxPlotLegendMarkerE@Qt_5 5.7.1
 _ZTVN8QtCharts20QHBoxPlotModelMapperE@Qt_5 5.9.0~rc
 _ZTVN8QtCharts20QHorizontalBarSeriesE@Qt_5 5.7.1
 _ZTVN8QtCharts20QVBoxPlotModelMapperE@Qt_5 5.7.1
 _ZTVN8QtCharts23QCandlestickModelMapperE@Qt_5 5.9.0~rc
 _ZTVN8QtCharts24QCandlestickLegendMarkerE@Qt_5 5.9.0~rc
 _ZTVN8QtCharts24QHCandlestickModelMapperE@Qt_5 5.9.0~rc
 _ZTVN8QtCharts24QVCandlestickModelMapperE@Qt_5 5.9.0~rc
 _ZTVN8QtCharts27QHorizontalPercentBarSeriesE@Qt_5 5.7.1
 _ZTVN8QtCharts27QHorizontalStackedBarSeriesE@Qt_5 5.7.1
 _ZTVN8QtCharts6QChartE@Qt_5 5.7.1
 _ZTVN8QtCharts7QBarSetE@Qt_5 5.7.1
 _ZTVN8QtCharts7QBoxSetE@Qt_5 5.7.1
 _ZTVN8QtCharts7QLegendE@Qt_5 5.7.1
 _ZTVN8QtCharts9QPieSliceE@Qt_5 5.7.1
 _ZTVN8QtCharts9QXYSeriesE@Qt_5 5.7.1
 (c++)"non-virtual thunk to QtCharts::QChart::~QChart()@Qt_5" 5.7.1
 (c++)"non-virtual thunk to QtCharts::QChartView::~QChartView()@Qt_5" 5.7.1
 (c++)"non-virtual thunk to QtCharts::QLegend::paint(QPainter*, QStyleOptionGraphicsItem const*, QWidget*)@Qt_5" 5.7.1
 (c++)"non-virtual thunk to QtCharts::QLegend::~QLegend()@Qt_5" 5.7.1
 (c++)"non-virtual thunk to QtCharts::QPolarChart::~QPolarChart()@Qt_5" 5.7.1
